	.text
	.file	"llvm-link"
	.globl	main                    # -- Begin function main
	.p2align	4, 0x90
	.type	main,@function
main:                                   # @main
	.cfi_startproc
# %bb.0:
	pushq	%rbp
	.cfi_def_cfa_offset 16
	.cfi_offset %rbp, -16
	movq	%rsp, %rbp
	.cfi_def_cfa_register %rbp
	subq	$64, %rsp
	movq	%fs:40, %rax
	movq	%rax, -8(%rbp)
	movl	$0, -52(%rbp)
	callq	init_dut
	movaps	.L__const.main.input_data+16(%rip), %xmm0
	movaps	%xmm0, -32(%rbp)
	movaps	.L__const.main.input_data(%rip), %xmm0
	movaps	%xmm0, -48(%rbp)
	leaq	-48(%rbp), %rdi
	movl	$32, %esi
	callq	do_one_computation
	movzbl	%al, %esi
	movl	$.L.str, %edi
	xorl	%eax, %eax
	callq	printf
	movq	%fs:40, %rax
	cmpq	-8(%rbp), %rax
	jne	.LBB0_2
# %bb.1:                                # %SP_return
	xorl	%eax, %eax
	addq	$64, %rsp
	popq	%rbp
	.cfi_def_cfa %rsp, 8
	retq
.LBB0_2:                                # %CallStackCheckFailBlk
	.cfi_def_cfa %rbp, 16
	callq	__stack_chk_fail
.Lfunc_end0:
	.size	main, .Lfunc_end0-main
	.cfi_endproc
                                        # -- End function
	.globl	do_one_computation      # -- Begin function do_one_computation
	.p2align	4, 0x90
	.type	do_one_computation,@function
do_one_computation:                     # @do_one_computation
	.cfi_startproc
# %bb.0:
	pushq	%r15
	.cfi_def_cfa_offset 16
	pushq	%r14
	.cfi_def_cfa_offset 24
	pushq	%r12
	.cfi_def_cfa_offset 32
	pushq	%rbx
	.cfi_def_cfa_offset 40
	subq	$72, %rsp
	.cfi_def_cfa_offset 112
	.cfi_offset %rbx, -40
	.cfi_offset %r12, -32
	.cfi_offset %r14, -24
	.cfi_offset %r15, -16
	movq	%rsi, %r14
	movq	%rdi, %rbx
	xorps	%xmm0, %xmm0
	movaps	%xmm0, 16(%rsp)
	movaps	%xmm0, (%rsp)
	movaps	.L__const.do_one_computation.basepoint(%rip), %xmm0
	movaps	%xmm0, 32(%rsp)
	movaps	.L__const.do_one_computation.basepoint+16(%rip), %xmm0
	movaps	%xmm0, 48(%rsp)
	movq	%rsp, %r12
	leaq	32(%rsp), %r15
	movl	$32, %esi
	movl	$32, %r9d
	movq	%r12, %rdi
	movq	%rbx, %rdx
	movq	%r14, %rcx
	movq	%r15, %r8
	callq	curve25519_donna
	movq	(%rsp), %rax
	movq	8(%rsp), %rcx
	movq	%rax, (%rbx)
	movq	%rcx, 8(%rbx)
	movq	16(%rsp), %rax
	movq	%rax, 16(%rbx)
	movq	24(%rsp), %rax
	movq	%rax, 24(%rbx)
	movl	$32, %esi
	movl	$32, %r9d
	movq	%r12, %rdi
	movq	%rbx, %rdx
	movq	%r14, %rcx
	movq	%r15, %r8
	callq	curve25519_donna
	movq	(%rsp), %rax
	movq	8(%rsp), %rcx
	movq	%rax, (%rbx)
	movq	%rcx, 8(%rbx)
	movq	16(%rsp), %rax
	movq	%rax, 16(%rbx)
	movq	24(%rsp), %rax
	movq	%rax, 24(%rbx)
	movl	$32, %esi
	movl	$32, %r9d
	movq	%r12, %rdi
	movq	%rbx, %rdx
	movq	%r14, %rcx
	movq	%r15, %r8
	callq	curve25519_donna
	movq	(%rsp), %rax
	movq	8(%rsp), %rcx
	movq	%rax, (%rbx)
	movq	%rcx, 8(%rbx)
	movq	16(%rsp), %rax
	movq	%rax, 16(%rbx)
	movq	24(%rsp), %rax
	movq	%rax, 24(%rbx)
	movl	$32, %esi
	movl	$32, %r9d
	movq	%r12, %rdi
	movq	%rbx, %rdx
	movq	%r14, %rcx
	movq	%r15, %r8
	callq	curve25519_donna
	movq	(%rsp), %rax
	movq	8(%rsp), %rcx
	movq	%rax, (%rbx)
	movq	%rcx, 8(%rbx)
	movq	16(%rsp), %rax
	movq	%rax, 16(%rbx)
	movq	24(%rsp), %rax
	movq	%rax, 24(%rbx)
	movl	$32, %esi
	movl	$32, %r9d
	movq	%r12, %rdi
	movq	%rbx, %rdx
	movq	%r14, %rcx
	movq	%r15, %r8
	callq	curve25519_donna
	movq	(%rsp), %rax
	movq	8(%rsp), %rcx
	movq	%rax, (%rbx)
	movq	%rcx, 8(%rbx)
	movq	16(%rsp), %rax
	movq	%rax, 16(%rbx)
	movq	24(%rsp), %rax
	movq	%rax, 24(%rbx)
	movl	$32, %esi
	movl	$32, %r9d
	movq	%r12, %rdi
	movq	%rbx, %rdx
	movq	%r14, %rcx
	movq	%r15, %r8
	callq	curve25519_donna
	movq	(%rsp), %rax
	movq	8(%rsp), %rcx
	movq	%rax, (%rbx)
	movq	%rcx, 8(%rbx)
	movq	16(%rsp), %rax
	movq	%rax, 16(%rbx)
	movq	24(%rsp), %rax
	movq	%rax, 24(%rbx)
	movl	$32, %esi
	movl	$32, %r9d
	movq	%r12, %rdi
	movq	%rbx, %rdx
	movq	%r14, %rcx
	movq	%r15, %r8
	callq	curve25519_donna
	movq	(%rsp), %rax
	movq	8(%rsp), %rcx
	movq	%rax, (%rbx)
	movq	%rcx, 8(%rbx)
	movq	16(%rsp), %rax
	movq	%rax, 16(%rbx)
	movq	24(%rsp), %rax
	movq	%rax, 24(%rbx)
	movl	$32, %esi
	movl	$32, %r9d
	movq	%r12, %rdi
	movq	%rbx, %rdx
	movq	%r14, %rcx
	movq	%r15, %r8
	callq	curve25519_donna
	movq	(%rsp), %rax
	movq	8(%rsp), %rcx
	movq	%rax, (%rbx)
	movq	%rcx, 8(%rbx)
	movq	16(%rsp), %rax
	movq	%rax, 16(%rbx)
	movq	24(%rsp), %rax
	movq	%rax, 24(%rbx)
	movl	$32, %esi
	movl	$32, %r9d
	movq	%r12, %rdi
	movq	%rbx, %rdx
	movq	%r14, %rcx
	movq	%r15, %r8
	callq	curve25519_donna
	movq	24(%rsp), %rax
	movq	%rax, 24(%rbx)
	movq	16(%rsp), %rax
	movq	%rax, 16(%rbx)
	movq	(%rsp), %rax
	movq	8(%rsp), %rcx
	movq	%rcx, 8(%rbx)
	movq	%rax, (%rbx)
	movb	(%rsp), %al
	addq	$72, %rsp
	.cfi_def_cfa_offset 40
	popq	%rbx
	.cfi_def_cfa_offset 32
	popq	%r12
	.cfi_def_cfa_offset 24
	popq	%r14
	.cfi_def_cfa_offset 16
	popq	%r15
	.cfi_def_cfa_offset 8
	retq
.Lfunc_end1:
	.size	do_one_computation, .Lfunc_end1-do_one_computation
	.cfi_endproc
                                        # -- End function
	.globl	init_dut                # -- Begin function init_dut
	.p2align	4, 0x90
	.type	init_dut,@function
init_dut:                               # @init_dut
	.cfi_startproc
# %bb.0:
	pushq	%rbp
	.cfi_def_cfa_offset 16
	.cfi_offset %rbp, -16
	movq	%rsp, %rbp
	.cfi_def_cfa_register %rbp
	popq	%rbp
	.cfi_def_cfa %rsp, 8
	retq
.Lfunc_end2:
	.size	init_dut, .Lfunc_end2-init_dut
	.cfi_endproc
                                        # -- End function
	.globl	prepare_inputs          # -- Begin function prepare_inputs
	.p2align	4, 0x90
	.type	prepare_inputs,@function
prepare_inputs:                         # @prepare_inputs
	.cfi_startproc
# %bb.0:
	pushq	%r14
	.cfi_def_cfa_offset 16
	pushq	%rbx
	.cfi_def_cfa_offset 24
	pushq	%rax
	.cfi_def_cfa_offset 32
	.cfi_offset %rbx, -24
	.cfi_offset %r14, -16
	movq	%rdx, %r14
	movq	%rdi, %rbx
	movl	$32, %edx
	callq	randombytes
	callq	randombit
	movb	%al, (%r14)
	testb	%al, %al
	jne	.LBB3_2
# %bb.1:
	movq	$0, 24(%rbx)
	movq	$0, 16(%rbx)
	movq	$0, 8(%rbx)
	movq	$0, (%rbx)
.LBB3_2:
	addq	$8, %rsp
	.cfi_def_cfa_offset 24
	popq	%rbx
	.cfi_def_cfa_offset 16
	popq	%r14
	.cfi_def_cfa_offset 8
	retq
.Lfunc_end3:
	.size	prepare_inputs, .Lfunc_end3-prepare_inputs
	.cfi_endproc
                                        # -- End function
	.globl	curve25519_donna        # -- Begin function curve25519_donna
	.p2align	4, 0x90
	.type	curve25519_donna,@function
curve25519_donna:                       # @curve25519_donna
	.cfi_startproc
# %bb.0:
	pushq	%rbp
	.cfi_def_cfa_offset 16
	pushq	%r15
	.cfi_def_cfa_offset 24
	pushq	%r14
	.cfi_def_cfa_offset 32
	pushq	%r13
	.cfi_def_cfa_offset 40
	pushq	%r12
	.cfi_def_cfa_offset 48
	pushq	%rbx
	.cfi_def_cfa_offset 56
	subq	$392, %rsp              # imm = 0x188
	.cfi_def_cfa_offset 448
	.cfi_offset %rbx, -56
	.cfi_offset %r12, -48
	.cfi_offset %r13, -40
	.cfi_offset %r14, -32
	.cfi_offset %r15, -24
	.cfi_offset %rbp, -16
	movq	%r9, %rcx
	movq	%rsi, %r14
	movq	%rdi, %r15
	movb	$1, 47(%rsp)
	movb	(%rdx), %al
	movb	%al, (%rsp)
	movb	1(%rdx), %al
	movb	%al, 1(%rsp)
	movb	2(%rdx), %al
	movb	%al, 2(%rsp)
	movb	3(%rdx), %al
	movb	%al, 3(%rsp)
	movb	4(%rdx), %al
	movb	%al, 4(%rsp)
	movb	5(%rdx), %al
	movb	%al, 5(%rsp)
	movb	6(%rdx), %al
	movb	%al, 6(%rsp)
	movb	7(%rdx), %al
	movb	%al, 7(%rsp)
	movb	8(%rdx), %al
	movb	%al, 8(%rsp)
	movb	9(%rdx), %al
	movb	%al, 9(%rsp)
	movb	10(%rdx), %al
	movb	%al, 10(%rsp)
	movb	11(%rdx), %al
	movb	%al, 11(%rsp)
	movb	12(%rdx), %al
	movb	%al, 12(%rsp)
	movb	13(%rdx), %al
	movb	%al, 13(%rsp)
	movb	14(%rdx), %al
	movb	%al, 14(%rsp)
	movb	15(%rdx), %al
	movb	%al, 15(%rsp)
	movb	16(%rdx), %al
	movb	%al, 16(%rsp)
	movb	17(%rdx), %al
	movb	%al, 17(%rsp)
	movb	18(%rdx), %al
	movb	%al, 18(%rsp)
	movb	19(%rdx), %al
	movb	%al, 19(%rsp)
	movb	20(%rdx), %al
	movb	%al, 20(%rsp)
	movb	21(%rdx), %al
	movb	%al, 21(%rsp)
	movb	22(%rdx), %al
	movb	%al, 22(%rsp)
	movb	23(%rdx), %al
	movb	%al, 23(%rsp)
	movb	24(%rdx), %al
	movb	%al, 24(%rsp)
	movb	25(%rdx), %al
	movb	%al, 25(%rsp)
	movb	26(%rdx), %al
	movb	%al, 26(%rsp)
	movb	27(%rdx), %al
	movb	%al, 27(%rsp)
	movb	28(%rdx), %al
	movb	%al, 28(%rsp)
	movb	29(%rdx), %al
	movb	%al, 29(%rsp)
	movb	30(%rdx), %al
	movb	%al, 30(%rsp)
	movb	31(%rdx), %al
	movb	%al, 31(%rsp)
	andb	$-8, (%rsp)
	andb	$63, %al
	orb	$64, %al
	movb	%al, 31(%rsp)
	leaq	208(%rsp), %r13
	movl	$10, %esi
	movq	%r13, %rdi
	movq	%r8, %rdx
	movl	$1, %r8d
	callq	fexpand
	subq	$8, %rsp
	.cfi_adjust_cfa_offset 8
	leaq	136(%rsp), %r12
	leaq	296(%rsp), %rbp
	leaq	8(%rsp), %r8
	movl	$10, %esi
	movl	$11, %ecx
	movl	$32, %r9d
	movq	%r12, %rdi
	movq	%rbp, %rdx
	pushq	$1
	.cfi_adjust_cfa_offset 8
	pushq	$10
	.cfi_adjust_cfa_offset 8
	pushq	%r13
	.cfi_adjust_cfa_offset 8
	callq	cmult
	addq	$32, %rsp
	.cfi_adjust_cfa_offset -32
	leaq	48(%rsp), %rbx
	movl	$10, %esi
	movl	$11, %ecx
	movq	%rbx, %rdi
	movq	%rbp, %rdx
	movl	$1, %r8d
	callq	crecip
	subq	$8, %rsp
	.cfi_adjust_cfa_offset 8
	movl	$11, %esi
	movl	$10, %ecx
	movl	$10, %r9d
	movq	%rbp, %rdi
	movq	%r12, %rdx
	movq	%rbx, %r8
	pushq	$1
	.cfi_adjust_cfa_offset 8
	callq	fmul
	addq	$16, %rsp
	.cfi_adjust_cfa_offset -16
	movl	$11, %ecx
	movq	%r15, %rdi
	movq	%r14, %rsi
	movq	%rbp, %rdx
	movl	$1, %r8d
	callq	fcontract
	xorl	%eax, %eax
	addq	$392, %rsp              # imm = 0x188
	.cfi_def_cfa_offset 56
	popq	%rbx
	.cfi_def_cfa_offset 48
	popq	%r12
	.cfi_def_cfa_offset 40
	popq	%r13
	.cfi_def_cfa_offset 32
	popq	%r14
	.cfi_def_cfa_offset 24
	popq	%r15
	.cfi_def_cfa_offset 16
	popq	%rbp
	.cfi_def_cfa_offset 8
	retq
.Lfunc_end4:
	.size	curve25519_donna, .Lfunc_end4-curve25519_donna
	.cfi_endproc
                                        # -- End function
	.p2align	4, 0x90         # -- Begin function fexpand
	.type	fexpand,@function
fexpand:                                # @fexpand
	.cfi_startproc
# %bb.0:
	pushq	%rbp
	.cfi_def_cfa_offset 16
	pushq	%r15
	.cfi_def_cfa_offset 24
	pushq	%r14
	.cfi_def_cfa_offset 32
	pushq	%r13
	.cfi_def_cfa_offset 40
	pushq	%r12
	.cfi_def_cfa_offset 48
	pushq	%rbx
	.cfi_def_cfa_offset 56
	.cfi_offset %rbx, -56
	.cfi_offset %r12, -48
	.cfi_offset %r13, -40
	.cfi_offset %r14, -32
	.cfi_offset %r15, -24
	.cfi_offset %rbp, -16
	andb	$1, %r8b
	leaq	2(%rdx), %rax
	leaq	3(%rdx), %r9
	cmpq	$3, %rcx
	leaq	-8(%rsp), %r15
	movq	%r15, %r10
	cmovgq	%r9, %r10
	testb	%r8b, %r8b
	movq	%r10, %r11
	cmovneq	%r9, %r11
	cmpq	$2, %rcx
	movq	%r15, %r12
	cmovgq	%rax, %r12
	testb	%r8b, %r8b
	cmovneq	%rax, %r12
	leaq	1(%rdx), %r14
	cmpq	$1, %rcx
	movq	%r15, %rax
	cmovgq	%r14, %rax
	testb	%r8b, %r8b
	cmovneq	%r14, %rax
	testq	%rcx, %rcx
	movq	%r15, %rbx
	cmovgq	%rdx, %rbx
	testb	%r8b, %r8b
	movb	%r8b, -9(%rsp)
	cmovneq	%rdx, %rbx
	movzbl	(%rbx), %ebx
	movzbl	(%rax), %eax
	shll	$8, %eax
	orl	%ebx, %eax
	movzbl	(%r12), %ebx
	shll	$16, %ebx
	orl	%eax, %ebx
	movzbl	(%r11), %eax
	shll	$24, %eax
	orl	%ebx, %eax
	andl	$67108863, %eax         # imm = 0x3FFFFFF
	testb	%r8b, %r8b
	cmoveq	(%rdi), %rax
	testq	%rsi, %rsi
	movq	%r15, %rbx
	cmovgq	%rdi, %rbx
	testb	%r8b, %r8b
	cmovneq	%rdi, %rbx
	movq	%rax, (%rbx)
	leaq	5(%rdx), %r12
	leaq	6(%rdx), %r8
	cmpq	$6, %rcx
	movb	-9(%rsp), %r13b
	movq	%r15, %r11
	cmovgq	%r8, %r11
	testb	%r13b, %r13b
	movq	%r11, %r14
	cmovneq	%r8, %r14
	cmpq	$5, %rcx
	movq	%r15, %rax
	cmovgq	%r12, %rax
	testb	%r13b, %r13b
	cmovneq	%r12, %rax
	leaq	4(%rdx), %rbx
	cmpq	$4, %rcx
	movq	%r15, %rbp
	cmovgq	%rbx, %rbp
	testb	%r13b, %r13b
	cmovneq	%r9, %r10
	movzbl	(%r10), %r9d
	cmovneq	%rbx, %rbp
	movzbl	(%rbp), %ebp
	shll	$8, %ebp
	orl	%r9d, %ebp
	movzbl	(%rax), %eax
	shll	$16, %eax
	orl	%ebp, %eax
	movzbl	(%r14), %ebp
	shll	$24, %ebp
	orl	%eax, %ebp
	shrl	$2, %ebp
	andl	$33554431, %ebp         # imm = 0x1FFFFFF
	testb	%r13b, %r13b
	cmoveq	8(%rdi), %rbp
	leaq	8(%rdi), %rax
	cmpq	$1, %rsi
	movq	%r15, %rbx
	cmovgq	%rax, %rbx
	testb	%r13b, %r13b
	cmovneq	%rax, %rbx
	movq	%rbp, (%rbx)
	leaq	8(%rdx), %rax
	leaq	9(%rdx), %r9
	cmpq	$9, %rcx
	movb	-9(%rsp), %r12b
	movq	%r15, %r10
	cmovgq	%r9, %r10
	testb	%r12b, %r12b
	movq	%r10, %r14
	cmovneq	%r9, %r14
	cmpq	$8, %rcx
	movq	%r15, %rbp
	cmovgq	%rax, %rbp
	testb	%r12b, %r12b
	cmovneq	%rax, %rbp
	leaq	7(%rdx), %rax
	cmpq	$7, %rcx
	movq	%r15, %rbx
	cmovgq	%rax, %rbx
	testb	%r12b, %r12b
	cmovneq	%r8, %r11
	movzbl	(%r11), %r8d
	cmovneq	%rax, %rbx
	movzbl	(%rbx), %eax
	shll	$8, %eax
	orl	%r8d, %eax
	movzbl	(%rbp), %ebp
	shll	$16, %ebp
	orl	%eax, %ebp
	movzbl	(%r14), %eax
	shll	$24, %eax
	orl	%ebp, %eax
	shrl	$3, %eax
	andl	$67108863, %eax         # imm = 0x3FFFFFF
	testb	%r12b, %r12b
	cmoveq	16(%rdi), %rax
	leaq	16(%rdi), %rbp
	cmpq	$2, %rsi
	movq	%r15, %rbx
	cmovgq	%rbp, %rbx
	testb	%r12b, %r12b
	cmovneq	%rbp, %rbx
	movq	%rax, (%rbx)
	leaq	11(%rdx), %rax
	leaq	12(%rdx), %r8
	cmpq	$12, %rcx
	movb	-9(%rsp), %r12b
	movq	%r15, %r11
	cmovgq	%r8, %r11
	testb	%r12b, %r12b
	movq	%r11, %r14
	cmovneq	%r8, %r14
	cmpq	$11, %rcx
	movq	%r15, %rbp
	cmovgq	%rax, %rbp
	testb	%r12b, %r12b
	cmovneq	%rax, %rbp
	leaq	10(%rdx), %rax
	cmpq	$10, %rcx
	movq	%r15, %rbx
	cmovgq	%rax, %rbx
	testb	%r12b, %r12b
	cmovneq	%r9, %r10
	movzbl	(%r10), %r9d
	cmovneq	%rax, %rbx
	movzbl	(%rbx), %eax
	shll	$8, %eax
	orl	%r9d, %eax
	movzbl	(%rbp), %ebp
	shll	$16, %ebp
	orl	%eax, %ebp
	movzbl	(%r14), %eax
	shll	$24, %eax
	orl	%ebp, %eax
	shrl	$5, %eax
	andl	$33554431, %eax         # imm = 0x1FFFFFF
	testb	%r12b, %r12b
	cmoveq	24(%rdi), %rax
	leaq	24(%rdi), %rbp
	cmpq	$3, %rsi
	movq	%r15, %rbx
	cmovgq	%rbp, %rbx
	testb	%r12b, %r12b
	cmovneq	%rbp, %rbx
	movq	%rax, (%rbx)
	leaq	14(%rdx), %r9
	leaq	15(%rdx), %rbp
	cmpq	$15, %rcx
	movq	%r15, %rax
	cmovgq	%rbp, %rax
	movb	-9(%rsp), %r10b
	testb	%r10b, %r10b
	cmovneq	%rbp, %rax
	cmpq	$14, %rcx
	movq	%r15, %rbp
	cmovgq	%r9, %rbp
	testb	%r10b, %r10b
	cmovneq	%r9, %rbp
	leaq	13(%rdx), %r9
	cmpq	$13, %rcx
	movq	%r15, %rbx
	cmovgq	%r9, %rbx
	testb	%r10b, %r10b
	cmovneq	%r8, %r11
	movzbl	(%r11), %r8d
	cmovneq	%r9, %rbx
	movzbl	(%rbx), %ebx
	shlq	$8, %rbx
	orq	%r8, %rbx
	movzbl	(%rbp), %ebp
	shlq	$16, %rbp
	orq	%rbx, %rbp
	movzbl	(%rax), %eax
	shlq	$24, %rax
	orq	%rbp, %rax
	shrq	$6, %rax
	testb	%r10b, %r10b
	cmoveq	32(%rdi), %rax
	leaq	32(%rdi), %rbp
	cmpq	$4, %rsi
	movq	%r15, %rbx
	cmovgq	%rbp, %rbx
	testb	%r10b, %r10b
	cmovneq	%rbp, %rbx
	movq	%rax, (%rbx)
	leaq	18(%rdx), %rax
	leaq	19(%rdx), %r8
	cmpq	$19, %rcx
	movb	-9(%rsp), %r11b
	movq	%r15, %r9
	cmovgq	%r8, %r9
	testb	%r11b, %r11b
	movq	%r9, %r10
	cmovneq	%r8, %r10
	cmpq	$18, %rcx
	movq	%r15, %rbp
	cmovgq	%rax, %rbp
	testb	%r11b, %r11b
	cmovneq	%rax, %rbp
	leaq	17(%rdx), %rax
	cmpq	$17, %rcx
	movq	%r15, %rbx
	cmovgq	%rax, %rbx
	testb	%r11b, %r11b
	cmovneq	%rax, %rbx
	leaq	16(%rdx), %r14
	cmpq	$16, %rcx
	movq	%r15, %rax
	cmovgq	%r14, %rax
	testb	%r11b, %r11b
	cmovneq	%r14, %rax
	movzbl	(%rax), %eax
	movzbl	(%rbx), %ebx
	shll	$8, %ebx
	orl	%eax, %ebx
	movzbl	(%rbp), %eax
	shll	$16, %eax
	orl	%ebx, %eax
	movzbl	(%r10), %ebp
	shll	$24, %ebp
	orl	%eax, %ebp
	andl	$33554431, %ebp         # imm = 0x1FFFFFF
	testb	%r11b, %r11b
	cmoveq	40(%rdi), %rbp
	leaq	40(%rdi), %rax
	cmpq	$5, %rsi
	movq	%r15, %rbx
	cmovgq	%rax, %rbx
	testb	%r11b, %r11b
	cmovneq	%rax, %rbx
	movq	%rbp, (%rbx)
	leaq	21(%rdx), %rax
	leaq	22(%rdx), %r10
	cmpq	$22, %rcx
	movb	-9(%rsp), %r12b
	movq	%r15, %r11
	cmovgq	%r10, %r11
	testb	%r12b, %r12b
	movq	%r11, %r14
	cmovneq	%r10, %r14
	cmpq	$21, %rcx
	movq	%r15, %rbp
	cmovgq	%rax, %rbp
	testb	%r12b, %r12b
	cmovneq	%rax, %rbp
	leaq	20(%rdx), %rax
	cmpq	$20, %rcx
	movq	%r15, %rbx
	cmovgq	%rax, %rbx
	testb	%r12b, %r12b
	cmovneq	%r8, %r9
	movzbl	(%r9), %r8d
	cmovneq	%rax, %rbx
	movzbl	(%rbx), %eax
	shll	$8, %eax
	orl	%r8d, %eax
	movzbl	(%rbp), %ebp
	shll	$16, %ebp
	orl	%eax, %ebp
	movzbl	(%r14), %eax
	shll	$24, %eax
	orl	%ebp, %eax
	shrl	%eax
	andl	$67108863, %eax         # imm = 0x3FFFFFF
	testb	%r12b, %r12b
	cmoveq	48(%rdi), %rax
	leaq	48(%rdi), %rbp
	cmpq	$6, %rsi
	movq	%r15, %rbx
	cmovgq	%rbp, %rbx
	testb	%r12b, %r12b
	cmovneq	%rbp, %rbx
	movq	%rax, (%rbx)
	leaq	24(%rdx), %rax
	leaq	25(%rdx), %r9
	cmpq	$25, %rcx
	movb	-9(%rsp), %r12b
	movq	%r15, %r14
	cmovgq	%r9, %r14
	testb	%r12b, %r12b
	movq	%r14, %r8
	cmovneq	%r9, %r8
	cmpq	$24, %rcx
	movq	%r15, %rbp
	cmovgq	%rax, %rbp
	testb	%r12b, %r12b
	cmovneq	%rax, %rbp
	leaq	23(%rdx), %rax
	cmpq	$23, %rcx
	movq	%r15, %rbx
	cmovgq	%rax, %rbx
	testb	%r12b, %r12b
	cmovneq	%r10, %r11
	movzbl	(%r11), %r10d
	cmovneq	%rax, %rbx
	movzbl	(%rbx), %eax
	shll	$8, %eax
	orl	%r10d, %eax
	movzbl	(%rbp), %ebp
	shll	$16, %ebp
	orl	%eax, %ebp
	movzbl	(%r8), %eax
	shll	$24, %eax
	orl	%ebp, %eax
	shrl	$3, %eax
	andl	$33554431, %eax         # imm = 0x1FFFFFF
	testb	%r12b, %r12b
	cmoveq	56(%rdi), %rax
	leaq	56(%rdi), %rbp
	cmpq	$7, %rsi
	movq	%r15, %rbx
	cmovgq	%rbp, %rbx
	testb	%r12b, %r12b
	cmovneq	%rbp, %rbx
	movq	%rax, (%rbx)
	leaq	27(%rdx), %rax
	leaq	28(%rdx), %r8
	cmpq	$28, %rcx
	movb	-9(%rsp), %r12b
	movq	%r15, %r10
	cmovgq	%r8, %r10
	testb	%r12b, %r12b
	movq	%r10, %r11
	cmovneq	%r8, %r11
	cmpq	$27, %rcx
	movq	%r15, %rbp
	cmovgq	%rax, %rbp
	testb	%r12b, %r12b
	cmovneq	%rax, %rbp
	leaq	26(%rdx), %rax
	cmpq	$26, %rcx
	movq	%r15, %rbx
	cmovgq	%rax, %rbx
	testb	%r12b, %r12b
	cmovneq	%r9, %r14
	movzbl	(%r14), %r9d
	cmovneq	%rax, %rbx
	movzbl	(%rbx), %eax
	shll	$8, %eax
	orl	%r9d, %eax
	movzbl	(%rbp), %ebp
	shll	$16, %ebp
	orl	%eax, %ebp
	movzbl	(%r11), %eax
	shll	$24, %eax
	orl	%ebp, %eax
	shrl	$4, %eax
	andl	$67108863, %eax         # imm = 0x3FFFFFF
	testb	%r12b, %r12b
	cmoveq	64(%rdi), %rax
	leaq	64(%rdi), %rbp
	cmpq	$8, %rsi
	movq	%r15, %rbx
	cmovgq	%rbp, %rbx
	testb	%r12b, %r12b
	cmovneq	%rbp, %rbx
	movq	%rax, (%rbx)
	leaq	30(%rdx), %r9
	leaq	31(%rdx), %rbp
	cmpq	$31, %rcx
	movq	%r15, %rax
	cmovgq	%rbp, %rax
	movb	-9(%rsp), %bl
	testb	%bl, %bl
	cmovneq	%rbp, %rax
	cmpq	$30, %rcx
	movq	%r15, %rbp
	cmovgq	%r9, %rbp
	testb	%bl, %bl
	cmovneq	%r9, %rbp
	addq	$29, %rdx
	cmpq	$29, %rcx
	movq	%r15, %rcx
	cmovgq	%rdx, %rcx
	testb	%bl, %bl
	cmovneq	%r8, %r10
	movzbl	(%r10), %r8d
	cmovneq	%rdx, %rcx
	movzbl	(%rcx), %ecx
	shll	$8, %ecx
	orl	%r8d, %ecx
	movzbl	(%rbp), %edx
	shll	$16, %edx
	orl	%ecx, %edx
	movzbl	(%rax), %eax
	shll	$24, %eax
	orl	%edx, %eax
	shrl	$6, %eax
	andl	$33554431, %eax         # imm = 0x1FFFFFF
	testb	%bl, %bl
	cmoveq	72(%rdi), %rax
	addq	$72, %rdi
	cmpq	$9, %rsi
	cmovgq	%rdi, %r15
	testb	%bl, %bl
	cmovneq	%rdi, %r15
	movq	%rax, (%r15)
	popq	%rbx
	.cfi_def_cfa_offset 48
	popq	%r12
	.cfi_def_cfa_offset 40
	popq	%r13
	.cfi_def_cfa_offset 32
	popq	%r14
	.cfi_def_cfa_offset 24
	popq	%r15
	.cfi_def_cfa_offset 16
	popq	%rbp
	.cfi_def_cfa_offset 8
	retq
.Lfunc_end5:
	.size	fexpand, .Lfunc_end5-fexpand
	.cfi_endproc
                                        # -- End function
	.p2align	4, 0x90         # -- Begin function cmult
	.type	cmult,@function
cmult:                                  # @cmult
	.cfi_startproc
# %bb.0:
	pushq	%rbp
	.cfi_def_cfa_offset 16
	pushq	%r15
	.cfi_def_cfa_offset 24
	pushq	%r14
	.cfi_def_cfa_offset 32
	pushq	%r13
	.cfi_def_cfa_offset 40
	pushq	%r12
	.cfi_def_cfa_offset 48
	pushq	%rbx
	.cfi_def_cfa_offset 56
	subq	$1320, %rsp             # imm = 0x528
	.cfi_def_cfa_offset 1376
	.cfi_offset %rbx, -56
	.cfi_offset %r12, -48
	.cfi_offset %r13, -40
	.cfi_offset %r14, -32
	.cfi_offset %r15, -24
	.cfi_offset %rbp, -16
	movq	%r9, 16(%rsp)           # 8-byte Spill
	movq	%r8, 8(%rsp)            # 8-byte Spill
	movq	%rdx, 1312(%rsp)        # 8-byte Spill
	movq	%rdi, 1304(%rsp)        # 8-byte Spill
	movq	1376(%rsp), %rsi
	xorps	%xmm0, %xmm0
	movaps	%xmm0, 832(%rsp)
	movaps	%xmm0, 848(%rsp)
	movaps	%xmm0, 864(%rsp)
	movaps	%xmm0, 880(%rsp)
	movaps	%xmm0, 896(%rsp)
	movaps	%xmm0, 912(%rsp)
	movaps	%xmm0, 928(%rsp)
	movaps	%xmm0, 944(%rsp)
	movaps	%xmm0, 960(%rsp)
	movq	$0, 976(%rsp)
	movaps	%xmm0, 1152(%rsp)
	movaps	%xmm0, 1168(%rsp)
	movaps	%xmm0, 1184(%rsp)
	movaps	%xmm0, 1200(%rsp)
	movaps	%xmm0, 1216(%rsp)
	movaps	%xmm0, 1232(%rsp)
	movaps	%xmm0, 1248(%rsp)
	movaps	%xmm0, 1264(%rsp)
	movaps	%xmm0, 1280(%rsp)
	movq	$0, 1296(%rsp)
	movl	1392(%rsp), %ebx
	cmpb	$0, 1392(%rsp)
	movl	$1, %eax
	movq	1152(%rsp), %rcx
	cmovneq	%rax, %rcx
	movq	%rcx, 1152(%rsp)
	movaps	%xmm0, 672(%rsp)
	movaps	%xmm0, 688(%rsp)
	movaps	%xmm0, 704(%rsp)
	movaps	%xmm0, 720(%rsp)
	movaps	%xmm0, 736(%rsp)
	movaps	%xmm0, 752(%rsp)
	movaps	%xmm0, 768(%rsp)
	movaps	%xmm0, 784(%rsp)
	movaps	%xmm0, 800(%rsp)
	movq	$0, 816(%rsp)
	movq	672(%rsp), %rcx
	cmovneq	%rax, %rcx
	movq	%rcx, 672(%rsp)
	movaps	%xmm0, 192(%rsp)
	movaps	%xmm0, 208(%rsp)
	movaps	%xmm0, 224(%rsp)
	movaps	%xmm0, 240(%rsp)
	movaps	%xmm0, 256(%rsp)
	movaps	%xmm0, 272(%rsp)
	movaps	%xmm0, 288(%rsp)
	movaps	%xmm0, 304(%rsp)
	movaps	%xmm0, 320(%rsp)
	movq	$0, 336(%rsp)
	movaps	%xmm0, 640(%rsp)
	movaps	%xmm0, 624(%rsp)
	movaps	%xmm0, 608(%rsp)
	movaps	%xmm0, 592(%rsp)
	movaps	%xmm0, 576(%rsp)
	movaps	%xmm0, 560(%rsp)
	movaps	%xmm0, 544(%rsp)
	movaps	%xmm0, 528(%rsp)
	movaps	%xmm0, 512(%rsp)
	movq	$0, 656(%rsp)
	movaps	%xmm0, 992(%rsp)
	movaps	%xmm0, 1120(%rsp)
	movaps	%xmm0, 1104(%rsp)
	movaps	%xmm0, 1088(%rsp)
	movaps	%xmm0, 1072(%rsp)
	movaps	%xmm0, 1056(%rsp)
	movaps	%xmm0, 1040(%rsp)
	movaps	%xmm0, 1024(%rsp)
	movaps	%xmm0, 1008(%rsp)
	movq	$0, 1136(%rsp)
	cmpb	$0, 1392(%rsp)
	movq	992(%rsp), %rcx
	cmovneq	%rax, %rcx
	movq	%rcx, 992(%rsp)
	movaps	%xmm0, 32(%rsp)
	movaps	%xmm0, 48(%rsp)
	movaps	%xmm0, 64(%rsp)
	movaps	%xmm0, 80(%rsp)
	movaps	%xmm0, 96(%rsp)
	movaps	%xmm0, 112(%rsp)
	movaps	%xmm0, 128(%rsp)
	movaps	%xmm0, 144(%rsp)
	movaps	%xmm0, 160(%rsp)
	movq	$0, 176(%rsp)
	movaps	%xmm0, 352(%rsp)
	movaps	%xmm0, 480(%rsp)
	movaps	%xmm0, 464(%rsp)
	movaps	%xmm0, 448(%rsp)
	movaps	%xmm0, 432(%rsp)
	movaps	%xmm0, 416(%rsp)
	movaps	%xmm0, 400(%rsp)
	movaps	%xmm0, 384(%rsp)
	movaps	%xmm0, 368(%rsp)
	movq	$0, 496(%rsp)
	cmpb	$0, 1392(%rsp)
	cmoveq	352(%rsp), %rax
	movq	%rax, 352(%rsp)
	leaq	832(%rsp), %rdi
	movl	$10, %ecx
	movq	%rdi, %rdx
	rep;movsq (%rsi), %es:(%rdi)
	leaq	31(%r8), %rax
	cmpq	$31, %r9
	leaq	24(%rsp), %rcx
	cmovgq	%rax, %rcx
	cmpb	$0, 1392(%rsp)
	cmovneq	%rax, %rcx
	movzbl	(%rcx), %r15d
	movq	%r15, %r14
	shrq	$7, %r14
	leaq	672(%rsp), %rdi
	movl	$19, %esi
	movl	$19, %ecx
	movq	%r14, %r8
	movl	%ebx, %r9d
	callq	swap_conditional
	leaq	192(%rsp), %r13
	leaq	1152(%rsp), %rbp
	movl	$19, %esi
	movl	$19, %ecx
	movq	%r13, %rdi
	movq	%rbp, %rdx
	movq	%r14, %r8
	movl	%ebx, %r9d
	callq	swap_conditional
	subq	$8, %rsp
	.cfi_adjust_cfa_offset 8
	leaq	1000(%rsp), %rax
	leaq	40(%rsp), %r12
	leaq	360(%rsp), %rdx
	leaq	520(%rsp), %r8
	movl	$19, %esi
	movl	$19, %ecx
	movl	$19, %r9d
	movq	%r12, %rdi
	pushq	%rbx
	.cfi_adjust_cfa_offset 8
	pushq	1400(%rsp)
	.cfi_adjust_cfa_offset 8
	pushq	1400(%rsp)
	.cfi_adjust_cfa_offset 8
	pushq	$19
	.cfi_adjust_cfa_offset 8
	pushq	%rbp
	.cfi_adjust_cfa_offset 8
	pushq	$19
	.cfi_adjust_cfa_offset 8
	leaq	888(%rsp), %rbp
	pushq	%rbp
	.cfi_adjust_cfa_offset 8
	pushq	$19
	.cfi_adjust_cfa_offset 8
	pushq	%r13
	.cfi_adjust_cfa_offset 8
	pushq	$19
	.cfi_adjust_cfa_offset 8
	leaq	760(%rsp), %rbp
	pushq	%rbp
	.cfi_adjust_cfa_offset 8
	pushq	$19
	.cfi_adjust_cfa_offset 8
	pushq	%rax
	movq	%rax, %rbp
	.cfi_adjust_cfa_offset 8
	callq	fmonty
	addq	$112, %rsp
	.cfi_adjust_cfa_offset -112
	movl	$19, %esi
	movl	$19, %ecx
	movq	%r12, %rdi
	leaq	512(%rsp), %rdx
	movq	%r14, %r8
	movl	%ebx, %r9d
	callq	swap_conditional
	movl	$19, %esi
	movl	$19, %ecx
	leaq	352(%rsp), %rdi
	movq	%rbp, %rdx
	movq	%r14, %r8
	movl	%ebx, %r9d
	callq	swap_conditional
	leal	(%r15,%r15), %eax
	movzbl	%al, %ecx
	movq	%rcx, (%rsp)            # 8-byte Spill
	movzbl	%al, %ebp
	shrq	$7, %rbp
	movl	$19, %esi
	movl	$19, %ecx
	movq	%r12, %rdi
	leaq	512(%rsp), %r13
	movq	%r13, %rdx
	movq	%rbp, %r8
	movl	%ebx, %r9d
	callq	swap_conditional
	movl	$19, %esi
	movl	$19, %ecx
	leaq	352(%rsp), %r12
	movq	%r12, %rdi
	leaq	992(%rsp), %r15
	movq	%r15, %rdx
	movq	%rbp, %r8
	movl	%ebx, %r9d
	callq	swap_conditional
	subq	$8, %rsp
	.cfi_adjust_cfa_offset 8
	movl	$19, %esi
	movl	$19, %ecx
	movl	$19, %r9d
	leaq	680(%rsp), %rdi
	leaq	200(%rsp), %rdx
	leaq	840(%rsp), %r14
	movq	%r14, %r8
	pushq	%rbx
	.cfi_adjust_cfa_offset 8
	movq	1400(%rsp), %rax
	pushq	%rax
	.cfi_adjust_cfa_offset 8
	movq	1400(%rsp), %rax
	pushq	%rax
	.cfi_adjust_cfa_offset 8
	pushq	$19
	.cfi_adjust_cfa_offset 8
	pushq	%r15
	.cfi_adjust_cfa_offset 8
	pushq	$19
	.cfi_adjust_cfa_offset 8
	pushq	%r13
	.cfi_adjust_cfa_offset 8
	pushq	$19
	.cfi_adjust_cfa_offset 8
	pushq	%r12
	.cfi_adjust_cfa_offset 8
	pushq	$19
	.cfi_adjust_cfa_offset 8
	leaq	120(%rsp), %rax
	pushq	%rax
	.cfi_adjust_cfa_offset 8
	pushq	$19
	.cfi_adjust_cfa_offset 8
	leaq	1256(%rsp), %r13
	pushq	%r13
	.cfi_adjust_cfa_offset 8
	callq	fmonty
	addq	$112, %rsp
	.cfi_adjust_cfa_offset -112
	movl	$19, %esi
	movl	$19, %ecx
	leaq	672(%rsp), %rdi
	movq	%rdi, %r15
	movq	%r14, %rdx
	movq	%r14, %r12
	movq	%rbp, %r8
	movl	%ebx, %r9d
	callq	swap_conditional
	movl	$19, %esi
	movl	$19, %ecx
	leaq	192(%rsp), %r14
	movq	%r14, %rdi
	movq	%r13, %rdx
	movq	%rbp, %r8
	movl	%ebx, %r9d
	callq	swap_conditional
	movq	(%rsp), %rax            # 8-byte Reload
	addl	%eax, %eax
	movzbl	%al, %ebp
	shrq	$7, %rbp
	movl	$19, %esi
	movl	$19, %ecx
	movq	%r15, %rdi
	movq	%r12, %rdx
	movq	%rbp, %r8
	movl	%ebx, %r9d
	callq	swap_conditional
	movl	$19, %esi
	movl	$19, %ecx
	movq	%r14, %rdi
	movq	%r13, %rdx
	movq	%rbp, %r8
	movl	%ebx, %r9d
	callq	swap_conditional
	subq	$8, %rsp
	.cfi_adjust_cfa_offset 8
	movl	$19, %esi
	movl	$19, %ecx
	movl	$19, %r9d
	leaq	40(%rsp), %r12
	movq	%r12, %rdi
	leaq	360(%rsp), %rdx
	leaq	520(%rsp), %r14
	movq	%r14, %r8
	pushq	%rbx
	.cfi_adjust_cfa_offset 8
	pushq	1400(%rsp)
	.cfi_adjust_cfa_offset 8
	pushq	1400(%rsp)
	.cfi_adjust_cfa_offset 8
	pushq	$19
	.cfi_adjust_cfa_offset 8
	pushq	%r13
	.cfi_adjust_cfa_offset 8
	pushq	$19
	.cfi_adjust_cfa_offset 8
	leaq	888(%rsp), %rax
	pushq	%rax
	.cfi_adjust_cfa_offset 8
	pushq	$19
	.cfi_adjust_cfa_offset 8
	leaq	264(%rsp), %rax
	pushq	%rax
	.cfi_adjust_cfa_offset 8
	pushq	$19
	.cfi_adjust_cfa_offset 8
	pushq	%r15
	.cfi_adjust_cfa_offset 8
	pushq	$19
	.cfi_adjust_cfa_offset 8
	leaq	1096(%rsp), %r13
	pushq	%r13
	.cfi_adjust_cfa_offset 8
	callq	fmonty
	addq	$112, %rsp
	.cfi_adjust_cfa_offset -112
	movl	$19, %esi
	movl	$19, %ecx
	movq	%r12, %rdi
	movq	%r14, %rdx
	movq	%r14, %r12
	movq	%rbp, %r8
	movl	%ebx, %r9d
	callq	swap_conditional
	movl	$19, %esi
	movl	$19, %ecx
	leaq	352(%rsp), %rdi
	movq	%rdi, %r15
	movq	%r13, %rdx
	movq	%r13, %r14
	movq	%rbp, %r8
	movl	%ebx, %r9d
	callq	swap_conditional
	movq	(%rsp), %rax            # 8-byte Reload
	shll	$2, %eax
	movzbl	%al, %ecx
	movq	%rcx, (%rsp)            # 8-byte Spill
	movzbl	%al, %ebp
	shrq	$7, %rbp
	movl	$19, %esi
	movl	$19, %ecx
	leaq	32(%rsp), %r13
	movq	%r13, %rdi
	movq	%r12, %rdx
	movq	%rbp, %r8
	movl	%ebx, %r9d
	callq	swap_conditional
	movl	$19, %esi
	movl	$19, %ecx
	movq	%r15, %rdi
	movq	%r14, %rdx
	movq	%r14, %r12
	movq	%rbp, %r8
	movl	%ebx, %r9d
	callq	swap_conditional
	subq	$8, %rsp
	.cfi_adjust_cfa_offset 8
	movl	$19, %esi
	movl	$19, %ecx
	movl	$19, %r9d
	leaq	680(%rsp), %r15
	movq	%r15, %rdi
	leaq	200(%rsp), %rdx
	leaq	840(%rsp), %r14
	movq	%r14, %r8
	pushq	%rbx
	.cfi_adjust_cfa_offset 8
	pushq	1400(%rsp)
	.cfi_adjust_cfa_offset 8
	pushq	1400(%rsp)
	.cfi_adjust_cfa_offset 8
	pushq	$19
	.cfi_adjust_cfa_offset 8
	pushq	%r12
	.cfi_adjust_cfa_offset 8
	pushq	$19
	.cfi_adjust_cfa_offset 8
	leaq	568(%rsp), %rax
	pushq	%rax
	.cfi_adjust_cfa_offset 8
	pushq	$19
	.cfi_adjust_cfa_offset 8
	leaq	424(%rsp), %rax
	pushq	%rax
	.cfi_adjust_cfa_offset 8
	pushq	$19
	.cfi_adjust_cfa_offset 8
	pushq	%r13
	.cfi_adjust_cfa_offset 8
	pushq	$19
	.cfi_adjust_cfa_offset 8
	leaq	1256(%rsp), %r13
	pushq	%r13
	.cfi_adjust_cfa_offset 8
	callq	fmonty
	addq	$112, %rsp
	.cfi_adjust_cfa_offset -112
	movl	$19, %esi
	movl	$19, %ecx
	movq	%r15, %rdi
	movq	%r14, %rdx
	movq	%rbp, %r8
	movl	%ebx, %r9d
	callq	swap_conditional
	movl	$19, %esi
	movl	$19, %ecx
	leaq	192(%rsp), %rdi
	movq	%rdi, %r12
	movq	%r13, %rdx
	movq	%rbp, %r8
	movl	%ebx, %r9d
	callq	swap_conditional
	movq	(%rsp), %rax            # 8-byte Reload
	addl	%eax, %eax
	movzbl	%al, %ebp
	shrq	$7, %rbp
	movl	$19, %esi
	movl	$19, %ecx
	movq	%r15, %rdi
	movq	%r14, %rdx
	movq	%rbp, %r8
	movl	%ebx, %r9d
	callq	swap_conditional
	movl	$19, %esi
	movl	$19, %ecx
	movq	%r12, %rdi
	movq	%r13, %rdx
	movq	%r13, %r15
	movq	%rbp, %r8
	movl	%ebx, %r9d
	callq	swap_conditional
	subq	$8, %rsp
	.cfi_adjust_cfa_offset 8
	movl	$19, %esi
	movl	$19, %ecx
	movl	$19, %r9d
	leaq	40(%rsp), %r13
	movq	%r13, %rdi
	leaq	360(%rsp), %rdx
	leaq	520(%rsp), %r14
	movq	%r14, %r8
	pushq	%rbx
	.cfi_adjust_cfa_offset 8
	movq	1400(%rsp), %rax
	pushq	%rax
	.cfi_adjust_cfa_offset 8
	movq	1400(%rsp), %rax
	pushq	%rax
	.cfi_adjust_cfa_offset 8
	pushq	$19
	.cfi_adjust_cfa_offset 8
	pushq	%r15
	.cfi_adjust_cfa_offset 8
	pushq	$19
	.cfi_adjust_cfa_offset 8
	leaq	888(%rsp), %rax
	pushq	%rax
	.cfi_adjust_cfa_offset 8
	pushq	$19
	.cfi_adjust_cfa_offset 8
	pushq	%r12
	.cfi_adjust_cfa_offset 8
	pushq	$19
	.cfi_adjust_cfa_offset 8
	leaq	760(%rsp), %rax
	pushq	%rax
	.cfi_adjust_cfa_offset 8
	pushq	$19
	.cfi_adjust_cfa_offset 8
	leaq	1096(%rsp), %r15
	pushq	%r15
	.cfi_adjust_cfa_offset 8
	callq	fmonty
	addq	$112, %rsp
	.cfi_adjust_cfa_offset -112
	movl	$19, %esi
	movl	$19, %ecx
	movq	%r13, %rdi
	movq	%r13, %r12
	movq	%r14, %rdx
	movq	%rbp, %r8
	movl	%ebx, %r9d
	callq	swap_conditional
	movl	$19, %esi
	movl	$19, %ecx
	leaq	352(%rsp), %rdi
	movq	%rdi, %r13
	movq	%r15, %rdx
	movq	%rbp, %r8
	movl	%ebx, %r9d
	callq	swap_conditional
	movq	(%rsp), %rax            # 8-byte Reload
	shll	$2, %eax
	movzbl	%al, %ebp
	movq	%rbp, (%rsp)            # 8-byte Spill
	shrq	$7, %rbp
	movl	$19, %esi
	movl	$19, %ecx
	movq	%r12, %rdi
	movq	%r14, %rdx
	movq	%rbp, %r8
	movl	%ebx, %r9d
	callq	swap_conditional
	movl	$19, %esi
	movl	$19, %ecx
	movq	%r13, %rdi
	movq	%r13, %r12
	movq	%r15, %rdx
	movq	%r15, %r14
	movq	%rbp, %r8
	movl	%ebx, %r9d
	callq	swap_conditional
	subq	$8, %rsp
	.cfi_adjust_cfa_offset 8
	movl	$19, %esi
	movl	$19, %ecx
	movl	$19, %r9d
	leaq	680(%rsp), %r15
	movq	%r15, %rdi
	leaq	200(%rsp), %rdx
	leaq	840(%rsp), %r13
	movq	%r13, %r8
	pushq	%rbx
	.cfi_adjust_cfa_offset 8
	pushq	1400(%rsp)
	.cfi_adjust_cfa_offset 8
	pushq	1400(%rsp)
	.cfi_adjust_cfa_offset 8
	pushq	$19
	.cfi_adjust_cfa_offset 8
	pushq	%r14
	.cfi_adjust_cfa_offset 8
	pushq	$19
	.cfi_adjust_cfa_offset 8
	leaq	568(%rsp), %rax
	pushq	%rax
	.cfi_adjust_cfa_offset 8
	pushq	$19
	.cfi_adjust_cfa_offset 8
	pushq	%r12
	.cfi_adjust_cfa_offset 8
	pushq	$19
	.cfi_adjust_cfa_offset 8
	leaq	120(%rsp), %rax
	pushq	%rax
	.cfi_adjust_cfa_offset 8
	pushq	$19
	.cfi_adjust_cfa_offset 8
	leaq	1256(%rsp), %r12
	pushq	%r12
	.cfi_adjust_cfa_offset 8
	callq	fmonty
	addq	$112, %rsp
	.cfi_adjust_cfa_offset -112
	movl	$19, %esi
	movl	$19, %ecx
	movq	%r15, %rdi
	movq	%r13, %rdx
	movq	%rbp, %r8
	movl	%ebx, %r9d
	callq	swap_conditional
	movl	$19, %esi
	movl	$19, %ecx
	leaq	192(%rsp), %rdi
	movq	%r12, %rdx
	movq	%rbp, %r8
	movl	%ebx, %r9d
	callq	swap_conditional
	movq	(%rsp), %r14            # 8-byte Reload
	leal	(%r14,%r14), %eax
	movzbl	%al, %ebp
	shrq	$7, %rbp
	movl	$19, %esi
	movl	$19, %ecx
	movq	%r15, %rdi
	movq	%r13, %rdx
	movq	%rbp, %r8
	movl	%ebx, %r9d
	callq	swap_conditional
	movl	$19, %esi
	movl	$19, %ecx
	leaq	192(%rsp), %rdi
	movq	%rdi, %r13
	movq	%r12, %rdx
	movq	%r12, %r15
	movq	%rbp, %r8
	movl	%ebx, %r9d
	callq	swap_conditional
	subq	$8, %rsp
	.cfi_adjust_cfa_offset 8
	movl	$19, %esi
	movl	$19, %ecx
	movl	$19, %r9d
	leaq	40(%rsp), %rdi
	leaq	360(%rsp), %rdx
	leaq	520(%rsp), %r12
	movq	%r12, %r8
	pushq	%rbx
	.cfi_adjust_cfa_offset 8
	movq	1400(%rsp), %rax
	pushq	%rax
	.cfi_adjust_cfa_offset 8
	movq	1400(%rsp), %rax
	pushq	%rax
	.cfi_adjust_cfa_offset 8
	pushq	$19
	.cfi_adjust_cfa_offset 8
	pushq	%r15
	.cfi_adjust_cfa_offset 8
	pushq	$19
	.cfi_adjust_cfa_offset 8
	leaq	888(%rsp), %rax
	pushq	%rax
	.cfi_adjust_cfa_offset 8
	pushq	$19
	.cfi_adjust_cfa_offset 8
	pushq	%r13
	.cfi_adjust_cfa_offset 8
	pushq	$19
	.cfi_adjust_cfa_offset 8
	leaq	760(%rsp), %rax
	pushq	%rax
	.cfi_adjust_cfa_offset 8
	pushq	$19
	.cfi_adjust_cfa_offset 8
	leaq	1096(%rsp), %r13
	pushq	%r13
	.cfi_adjust_cfa_offset 8
	callq	fmonty
	addq	$112, %rsp
	.cfi_adjust_cfa_offset -112
	movl	$19, %esi
	movl	$19, %ecx
	leaq	32(%rsp), %r15
	movq	%r15, %rdi
	movq	%r12, %rdx
	movq	%rbp, %r8
	movl	%ebx, %r9d
	callq	swap_conditional
	movl	$19, %esi
	movl	$19, %ecx
	leaq	352(%rsp), %rdi
	movq	%r13, %rdx
	movq	%rbp, %r8
	movl	%ebx, %r9d
	callq	swap_conditional
	movq	%r14, %rax
	shll	$2, %eax
	movzbl	%al, %ebp
	shrq	$7, %rbp
	movl	$19, %esi
	movl	$19, %ecx
	movq	%r15, %rdi
	movq	%r12, %rdx
	movq	%rbp, %r8
	movl	%ebx, %r9d
	callq	swap_conditional
	movl	$19, %esi
	movl	$19, %ecx
	leaq	352(%rsp), %rdi
	movq	%rdi, %r14
	movq	%r13, %rdx
	movq	%rbp, %r8
	movl	%ebx, %r9d
	callq	swap_conditional
	subq	$8, %rsp
	.cfi_adjust_cfa_offset 8
	movl	$19, %esi
	movl	$19, %ecx
	movl	$19, %r9d
	leaq	680(%rsp), %r15
	movq	%r15, %rdi
	leaq	200(%rsp), %rdx
	leaq	840(%rsp), %r12
	movq	%r12, %r8
	pushq	%rbx
	.cfi_adjust_cfa_offset 8
	pushq	1400(%rsp)
	.cfi_adjust_cfa_offset 8
	pushq	1400(%rsp)
	.cfi_adjust_cfa_offset 8
	pushq	$19
	.cfi_adjust_cfa_offset 8
	pushq	%r13
	.cfi_adjust_cfa_offset 8
	pushq	$19
	.cfi_adjust_cfa_offset 8
	leaq	568(%rsp), %rax
	pushq	%rax
	.cfi_adjust_cfa_offset 8
	pushq	$19
	.cfi_adjust_cfa_offset 8
	pushq	%r14
	.cfi_adjust_cfa_offset 8
	pushq	$19
	.cfi_adjust_cfa_offset 8
	leaq	120(%rsp), %rax
	pushq	%rax
	.cfi_adjust_cfa_offset 8
	pushq	$19
	.cfi_adjust_cfa_offset 8
	leaq	1256(%rsp), %r14
	pushq	%r14
	.cfi_adjust_cfa_offset 8
	callq	fmonty
	addq	$112, %rsp
	.cfi_adjust_cfa_offset -112
	movl	$19, %esi
	movl	$19, %ecx
	movq	%r15, %rdi
	movq	%r15, %r13
	movq	%r12, %rdx
	movq	%r12, %r15
	movq	%rbp, %r8
	movl	%ebx, %r9d
	callq	swap_conditional
	movl	$19, %esi
	movl	$19, %ecx
	leaq	192(%rsp), %rdi
	movq	%rdi, %r12
	movq	%r14, %rdx
	movq	%rbp, %r8
	movl	%ebx, %r9d
	callq	swap_conditional
	movq	8(%rsp), %rax           # 8-byte Reload
	addq	$30, %rax
	cmpq	$30, 16(%rsp)           # 8-byte Folded Reload
	leaq	24(%rsp), %rcx
	cmovgq	%rax, %rcx
	cmpb	$0, 1392(%rsp)
	cmovneq	%rax, %rcx
	movzbl	(%rcx), %ebp
	movq	%rbp, (%rsp)            # 8-byte Spill
	shrq	$7, %rbp
	movl	$19, %esi
	movl	$19, %ecx
	movq	%r13, %rdi
	movq	%r15, %rdx
	movq	%rbp, %r8
	movl	%ebx, %r9d
	callq	swap_conditional
	movl	$19, %esi
	movl	$19, %ecx
	movq	%r12, %rdi
	movq	%r12, %r15
	movq	%r14, %rdx
	movq	%r14, %r13
	movq	%rbp, %r8
	movl	%ebx, %r9d
	callq	swap_conditional
	subq	$8, %rsp
	.cfi_adjust_cfa_offset 8
	movl	$19, %esi
	movl	$19, %ecx
	movl	$19, %r9d
	leaq	40(%rsp), %rdi
	leaq	360(%rsp), %r14
	movq	%r14, %rdx
	leaq	520(%rsp), %r12
	movq	%r12, %r8
	pushq	%rbx
	.cfi_adjust_cfa_offset 8
	movq	1400(%rsp), %rax
	pushq	%rax
	.cfi_adjust_cfa_offset 8
	movq	1400(%rsp), %rax
	pushq	%rax
	.cfi_adjust_cfa_offset 8
	pushq	$19
	.cfi_adjust_cfa_offset 8
	pushq	%r13
	.cfi_adjust_cfa_offset 8
	pushq	$19
	.cfi_adjust_cfa_offset 8
	leaq	888(%rsp), %rax
	pushq	%rax
	.cfi_adjust_cfa_offset 8
	pushq	$19
	.cfi_adjust_cfa_offset 8
	pushq	%r15
	.cfi_adjust_cfa_offset 8
	pushq	$19
	.cfi_adjust_cfa_offset 8
	leaq	760(%rsp), %rax
	pushq	%rax
	.cfi_adjust_cfa_offset 8
	pushq	$19
	.cfi_adjust_cfa_offset 8
	leaq	1096(%rsp), %r13
	pushq	%r13
	.cfi_adjust_cfa_offset 8
	callq	fmonty
	addq	$112, %rsp
	.cfi_adjust_cfa_offset -112
	movl	$19, %esi
	movl	$19, %ecx
	leaq	32(%rsp), %r15
	movq	%r15, %rdi
	movq	%r12, %rdx
	movq	%rbp, %r8
	movl	%ebx, %r9d
	callq	swap_conditional
	movl	$19, %esi
	movl	$19, %ecx
	movq	%r14, %rdi
	movq	%r14, %r12
	movq	%r13, %rdx
	movq	%rbp, %r8
	movl	%ebx, %r9d
	callq	swap_conditional
	movq	(%rsp), %rax            # 8-byte Reload
	addl	%eax, %eax
	movzbl	%al, %ecx
	movq	%rcx, (%rsp)            # 8-byte Spill
	movzbl	%al, %ebp
	shrq	$7, %rbp
	movl	$19, %esi
	movl	$19, %ecx
	movq	%r15, %rdi
	leaq	512(%rsp), %r14
	movq	%r14, %rdx
	movq	%rbp, %r8
	movl	%ebx, %r9d
	callq	swap_conditional
	movl	$19, %esi
	movl	$19, %ecx
	movq	%r12, %rdi
	movq	%r13, %rdx
	movq	%r13, %r12
	movq	%rbp, %r8
	movl	%ebx, %r9d
	callq	swap_conditional
	subq	$8, %rsp
	.cfi_adjust_cfa_offset 8
	movl	$19, %esi
	movl	$19, %ecx
	movl	$19, %r9d
	leaq	680(%rsp), %r15
	movq	%r15, %rdi
	leaq	200(%rsp), %rdx
	leaq	840(%rsp), %r13
	movq	%r13, %r8
	pushq	%rbx
	.cfi_adjust_cfa_offset 8
	movq	1400(%rsp), %rax
	pushq	%rax
	.cfi_adjust_cfa_offset 8
	pushq	1400(%rsp)
	.cfi_adjust_cfa_offset 8
	pushq	$19
	.cfi_adjust_cfa_offset 8
	pushq	%r12
	.cfi_adjust_cfa_offset 8
	pushq	$19
	.cfi_adjust_cfa_offset 8
	pushq	%r14
	.cfi_adjust_cfa_offset 8
	pushq	$19
	.cfi_adjust_cfa_offset 8
	leaq	424(%rsp), %rax
	pushq	%rax
	.cfi_adjust_cfa_offset 8
	pushq	$19
	.cfi_adjust_cfa_offset 8
	leaq	120(%rsp), %rax
	pushq	%rax
	.cfi_adjust_cfa_offset 8
	pushq	$19
	.cfi_adjust_cfa_offset 8
	leaq	1256(%rsp), %r12
	pushq	%r12
	.cfi_adjust_cfa_offset 8
	callq	fmonty
	addq	$112, %rsp
	.cfi_adjust_cfa_offset -112
	movl	$19, %esi
	movl	$19, %ecx
	movq	%r15, %rdi
	movq	%r13, %rdx
	movq	%r13, %r15
	movq	%rbp, %r8
	movl	%ebx, %r9d
	callq	swap_conditional
	movl	$19, %esi
	movl	$19, %ecx
	leaq	192(%rsp), %r14
	movq	%r14, %rdi
	movq	%r12, %rdx
	movq	%r12, %r13
	movq	%rbp, %r8
	movl	%ebx, %r9d
	callq	swap_conditional
	movq	(%rsp), %rax            # 8-byte Reload
	addl	%eax, %eax
	movzbl	%al, %ebp
	shrq	$7, %rbp
	movl	$19, %esi
	movl	$19, %ecx
	leaq	672(%rsp), %r12
	movq	%r12, %rdi
	movq	%r15, %rdx
	movq	%rbp, %r8
	movl	%ebx, %r9d
	callq	swap_conditional
	movl	$19, %esi
	movl	$19, %ecx
	movq	%r14, %rdi
	movq	%r13, %rdx
	movq	%r13, %r14
	movq	%rbp, %r8
	movl	%ebx, %r9d
	callq	swap_conditional
	subq	$8, %rsp
	.cfi_adjust_cfa_offset 8
	movl	$19, %esi
	movl	$19, %ecx
	movl	$19, %r9d
	leaq	40(%rsp), %r15
	movq	%r15, %rdi
	leaq	360(%rsp), %rdx
	leaq	520(%rsp), %r13
	movq	%r13, %r8
	pushq	%rbx
	.cfi_adjust_cfa_offset 8
	pushq	1400(%rsp)
	.cfi_adjust_cfa_offset 8
	pushq	1400(%rsp)
	.cfi_adjust_cfa_offset 8
	pushq	$19
	.cfi_adjust_cfa_offset 8
	pushq	%r14
	.cfi_adjust_cfa_offset 8
	pushq	$19
	.cfi_adjust_cfa_offset 8
	leaq	888(%rsp), %rax
	pushq	%rax
	.cfi_adjust_cfa_offset 8
	pushq	$19
	.cfi_adjust_cfa_offset 8
	leaq	264(%rsp), %rax
	pushq	%rax
	.cfi_adjust_cfa_offset 8
	pushq	$19
	.cfi_adjust_cfa_offset 8
	pushq	%r12
	.cfi_adjust_cfa_offset 8
	pushq	$19
	.cfi_adjust_cfa_offset 8
	leaq	1096(%rsp), %r12
	pushq	%r12
	.cfi_adjust_cfa_offset 8
	callq	fmonty
	addq	$112, %rsp
	.cfi_adjust_cfa_offset -112
	movl	$19, %esi
	movl	$19, %ecx
	movq	%r15, %rdi
	movq	%r13, %rdx
	movq	%rbp, %r8
	movl	%ebx, %r9d
	callq	swap_conditional
	movl	$19, %esi
	movl	$19, %ecx
	leaq	352(%rsp), %rdi
	movq	%rdi, %r14
	movq	%r12, %rdx
	movq	%rbp, %r8
	movl	%ebx, %r9d
	callq	swap_conditional
	movq	(%rsp), %rax            # 8-byte Reload
	shll	$2, %eax
	movzbl	%al, %ecx
	movq	%rcx, (%rsp)            # 8-byte Spill
	movzbl	%al, %ebp
	shrq	$7, %rbp
	movl	$19, %esi
	movl	$19, %ecx
	movq	%r15, %rdi
	movq	%r13, %rdx
	movq	%rbp, %r8
	movl	%ebx, %r9d
	callq	swap_conditional
	movl	$19, %esi
	movl	$19, %ecx
	movq	%r14, %rdi
	movq	%r14, %r13
	movq	%r12, %rdx
	movq	%r12, %r15
	movq	%rbp, %r8
	movl	%ebx, %r9d
	callq	swap_conditional
	subq	$8, %rsp
	.cfi_adjust_cfa_offset 8
	movl	$19, %esi
	movl	$19, %ecx
	movl	$19, %r9d
	leaq	680(%rsp), %r12
	movq	%r12, %rdi
	leaq	200(%rsp), %r14
	movq	%r14, %rdx
	leaq	840(%rsp), %r8
	pushq	%rbx
	.cfi_adjust_cfa_offset 8
	movq	1400(%rsp), %rax
	pushq	%rax
	.cfi_adjust_cfa_offset 8
	movq	1400(%rsp), %rax
	pushq	%rax
	.cfi_adjust_cfa_offset 8
	pushq	$19
	.cfi_adjust_cfa_offset 8
	pushq	%r15
	.cfi_adjust_cfa_offset 8
	pushq	$19
	.cfi_adjust_cfa_offset 8
	leaq	568(%rsp), %rax
	pushq	%rax
	.cfi_adjust_cfa_offset 8
	pushq	$19
	.cfi_adjust_cfa_offset 8
	pushq	%r13
	.cfi_adjust_cfa_offset 8
	pushq	$19
	.cfi_adjust_cfa_offset 8
	leaq	120(%rsp), %rax
	pushq	%rax
	.cfi_adjust_cfa_offset 8
	pushq	$19
	.cfi_adjust_cfa_offset 8
	leaq	1256(%rsp), %r13
	pushq	%r13
	.cfi_adjust_cfa_offset 8
	callq	fmonty
	addq	$112, %rsp
	.cfi_adjust_cfa_offset -112
	movl	$19, %esi
	movl	$19, %ecx
	movq	%r12, %rdi
	leaq	832(%rsp), %rdx
	movq	%rbp, %r8
	movl	%ebx, %r9d
	callq	swap_conditional
	movl	$19, %esi
	movl	$19, %ecx
	movq	%r14, %rdi
	movq	%r13, %rdx
	movq	%rbp, %r8
	movl	%ebx, %r9d
	callq	swap_conditional
	movq	(%rsp), %rax            # 8-byte Reload
	addl	%eax, %eax
	movzbl	%al, %ebp
	shrq	$7, %rbp
	movl	$19, %esi
	movl	$19, %ecx
	movq	%r12, %rdi
	leaq	832(%rsp), %r15
	movq	%r15, %rdx
	movq	%rbp, %r8
	movl	%ebx, %r9d
	callq	swap_conditional
	movl	$19, %esi
	movl	$19, %ecx
	movq	%r14, %rdi
	movq	%r13, %rdx
	movq	%rbp, %r8
	movl	%ebx, %r9d
	callq	swap_conditional
	subq	$8, %rsp
	.cfi_adjust_cfa_offset 8
	movl	$19, %esi
	movl	$19, %ecx
	movl	$19, %r9d
	leaq	40(%rsp), %r14
	movq	%r14, %rdi
	leaq	360(%rsp), %rdx
	leaq	520(%rsp), %r12
	movq	%r12, %r8
	pushq	%rbx
	.cfi_adjust_cfa_offset 8
	movq	1400(%rsp), %rax
	pushq	%rax
	.cfi_adjust_cfa_offset 8
	pushq	1400(%rsp)
	.cfi_adjust_cfa_offset 8
	pushq	$19
	.cfi_adjust_cfa_offset 8
	pushq	%r13
	.cfi_adjust_cfa_offset 8
	pushq	$19
	.cfi_adjust_cfa_offset 8
	pushq	%r15
	.cfi_adjust_cfa_offset 8
	pushq	$19
	.cfi_adjust_cfa_offset 8
	leaq	264(%rsp), %rax
	pushq	%rax
	.cfi_adjust_cfa_offset 8
	pushq	$19
	.cfi_adjust_cfa_offset 8
	leaq	760(%rsp), %rax
	pushq	%rax
	.cfi_adjust_cfa_offset 8
	pushq	$19
	.cfi_adjust_cfa_offset 8
	leaq	1096(%rsp), %r13
	pushq	%r13
	.cfi_adjust_cfa_offset 8
	callq	fmonty
	addq	$112, %rsp
	.cfi_adjust_cfa_offset -112
	movl	$19, %esi
	movl	$19, %ecx
	movq	%r14, %rdi
	movq	%r12, %rdx
	movq	%r12, %r14
	movq	%rbp, %r8
	movl	%ebx, %r9d
	callq	swap_conditional
	movl	$19, %esi
	movl	$19, %ecx
	leaq	352(%rsp), %rdi
	movq	%rdi, %r12
	movq	%r13, %rdx
	movq	%rbp, %r8
	movl	%ebx, %r9d
	callq	swap_conditional
	movq	(%rsp), %rax            # 8-byte Reload
	shll	$2, %eax
	movzbl	%al, %ebp
	movq	%rbp, (%rsp)            # 8-byte Spill
	shrq	$7, %rbp
	movl	$19, %esi
	movl	$19, %ecx
	leaq	32(%rsp), %rdi
	movq	%r14, %rdx
	movq	%rbp, %r8
	movl	%ebx, %r9d
	callq	swap_conditional
	movl	$19, %esi
	movl	$19, %ecx
	movq	%r12, %rdi
	movq	%r13, %rdx
	movq	%r13, %r14
	movq	%rbp, %r8
	movl	%ebx, %r9d
	callq	swap_conditional
	subq	$8, %rsp
	.cfi_adjust_cfa_offset 8
	movl	$19, %esi
	movl	$19, %ecx
	movl	$19, %r9d
	leaq	680(%rsp), %r13
	movq	%r13, %rdi
	leaq	200(%rsp), %rdx
	movq	%r15, %r8
	pushq	%rbx
	.cfi_adjust_cfa_offset 8
	pushq	1400(%rsp)
	.cfi_adjust_cfa_offset 8
	pushq	1400(%rsp)
	.cfi_adjust_cfa_offset 8
	pushq	$19
	.cfi_adjust_cfa_offset 8
	pushq	%r14
	.cfi_adjust_cfa_offset 8
	pushq	$19
	.cfi_adjust_cfa_offset 8
	leaq	568(%rsp), %rax
	pushq	%rax
	.cfi_adjust_cfa_offset 8
	pushq	$19
	.cfi_adjust_cfa_offset 8
	pushq	%r12
	.cfi_adjust_cfa_offset 8
	pushq	$19
	.cfi_adjust_cfa_offset 8
	leaq	120(%rsp), %rax
	pushq	%rax
	.cfi_adjust_cfa_offset 8
	pushq	$19
	.cfi_adjust_cfa_offset 8
	leaq	1256(%rsp), %r12
	pushq	%r12
	.cfi_adjust_cfa_offset 8
	callq	fmonty
	addq	$112, %rsp
	.cfi_adjust_cfa_offset -112
	movl	$19, %esi
	movl	$19, %ecx
	movq	%r13, %rdi
	movq	%r15, %rdx
	movq	%r15, %r13
	movq	%rbp, %r8
	movl	%ebx, %r9d
	callq	swap_conditional
	movl	$19, %esi
	movl	$19, %ecx
	leaq	192(%rsp), %rdi
	movq	%rdi, %r15
	movq	%r12, %rdx
	movq	%rbp, %r8
	movl	%ebx, %r9d
	callq	swap_conditional
	movq	(%rsp), %r14            # 8-byte Reload
	leal	(%r14,%r14), %eax
	movzbl	%al, %ebp
	shrq	$7, %rbp
	movl	$19, %esi
	movl	$19, %ecx
	leaq	672(%rsp), %rdi
	movq	%r13, %rdx
	movq	%rbp, %r8
	movl	%ebx, %r9d
	callq	swap_conditional
	movl	$19, %esi
	movl	$19, %ecx
	movq	%r15, %rdi
	movq	%r12, %rdx
	movq	%r12, %r13
	movq	%rbp, %r8
	movl	%ebx, %r9d
	callq	swap_conditional
	subq	$8, %rsp
	.cfi_adjust_cfa_offset 8
	movl	$19, %esi
	movl	$19, %ecx
	movl	$19, %r9d
	leaq	40(%rsp), %rdi
	leaq	360(%rsp), %rdx
	leaq	520(%rsp), %r12
	movq	%r12, %r8
	pushq	%rbx
	.cfi_adjust_cfa_offset 8
	movq	1400(%rsp), %rax
	pushq	%rax
	.cfi_adjust_cfa_offset 8
	movq	1400(%rsp), %rax
	pushq	%rax
	.cfi_adjust_cfa_offset 8
	pushq	$19
	.cfi_adjust_cfa_offset 8
	pushq	%r13
	.cfi_adjust_cfa_offset 8
	pushq	$19
	.cfi_adjust_cfa_offset 8
	leaq	888(%rsp), %rax
	pushq	%rax
	.cfi_adjust_cfa_offset 8
	pushq	$19
	.cfi_adjust_cfa_offset 8
	pushq	%r15
	.cfi_adjust_cfa_offset 8
	pushq	$19
	.cfi_adjust_cfa_offset 8
	leaq	760(%rsp), %rax
	pushq	%rax
	.cfi_adjust_cfa_offset 8
	pushq	$19
	.cfi_adjust_cfa_offset 8
	leaq	1096(%rsp), %r15
	pushq	%r15
	.cfi_adjust_cfa_offset 8
	callq	fmonty
	addq	$112, %rsp
	.cfi_adjust_cfa_offset -112
	movl	$19, %esi
	movl	$19, %ecx
	leaq	32(%rsp), %r13
	movq	%r13, %rdi
	movq	%r12, %rdx
	movq	%rbp, %r8
	movl	%ebx, %r9d
	callq	swap_conditional
	movl	$19, %esi
	movl	$19, %ecx
	leaq	352(%rsp), %rdi
	movq	%r15, %rdx
	movq	%rbp, %r8
	movl	%ebx, %r9d
	callq	swap_conditional
	movq	%r14, %rax
	shll	$2, %eax
	movzbl	%al, %ebp
	shrq	$7, %rbp
	movl	$19, %esi
	movl	$19, %ecx
	movq	%r13, %rdi
	movq	%r12, %rdx
	movq	%rbp, %r8
	movl	%ebx, %r9d
	callq	swap_conditional
	movl	$19, %esi
	movl	$19, %ecx
	leaq	352(%rsp), %rdi
	movq	%r15, %rdx
	movq	%rbp, %r8
	movl	%ebx, %r9d
	callq	swap_conditional
	subq	$8, %rsp
	.cfi_adjust_cfa_offset 8
	movl	$19, %esi
	movl	$19, %ecx
	movl	$19, %r9d
	leaq	680(%rsp), %r14
	movq	%r14, %rdi
	leaq	200(%rsp), %r12
	movq	%r12, %rdx
	leaq	840(%rsp), %r13
	movq	%r13, %r8
	pushq	%rbx
	.cfi_adjust_cfa_offset 8
	pushq	1400(%rsp)
	.cfi_adjust_cfa_offset 8
	pushq	1400(%rsp)
	.cfi_adjust_cfa_offset 8
	pushq	$19
	.cfi_adjust_cfa_offset 8
	pushq	%r15
	.cfi_adjust_cfa_offset 8
	pushq	$19
	.cfi_adjust_cfa_offset 8
	leaq	568(%rsp), %rax
	pushq	%rax
	.cfi_adjust_cfa_offset 8
	pushq	$19
	.cfi_adjust_cfa_offset 8
	leaq	424(%rsp), %rax
	pushq	%rax
	.cfi_adjust_cfa_offset 8
	pushq	$19
	.cfi_adjust_cfa_offset 8
	leaq	120(%rsp), %rax
	pushq	%rax
	.cfi_adjust_cfa_offset 8
	pushq	$19
	.cfi_adjust_cfa_offset 8
	leaq	1256(%rsp), %r15
	pushq	%r15
	.cfi_adjust_cfa_offset 8
	callq	fmonty
	addq	$112, %rsp
	.cfi_adjust_cfa_offset -112
	movl	$19, %esi
	movl	$19, %ecx
	movq	%r14, %rdi
	movq	%r13, %rdx
	movq	%rbp, %r8
	movl	%ebx, %r9d
	callq	swap_conditional
	movl	$19, %esi
	movl	$19, %ecx
	movq	%r12, %rdi
	movq	%r15, %rdx
	movq	%r15, %r14
	movq	%rbp, %r8
	movl	%ebx, %r9d
	callq	swap_conditional
	movq	8(%rsp), %rax           # 8-byte Reload
	addq	$29, %rax
	cmpq	$29, 16(%rsp)           # 8-byte Folded Reload
	leaq	24(%rsp), %rcx
	cmovgq	%rax, %rcx
	cmpb	$0, 1392(%rsp)
	cmovneq	%rax, %rcx
	movzbl	(%rcx), %ebp
	movq	%rbp, (%rsp)            # 8-byte Spill
	shrq	$7, %rbp
	movl	$19, %esi
	movl	$19, %ecx
	leaq	672(%rsp), %rdi
	movq	%r13, %rdx
	movq	%rbp, %r8
	movl	%ebx, %r9d
	callq	swap_conditional
	movl	$19, %esi
	movl	$19, %ecx
	movq	%r12, %r15
	movq	%r12, %rdi
	movq	%r14, %rdx
	movq	%rbp, %r8
	movl	%ebx, %r9d
	callq	swap_conditional
	subq	$8, %rsp
	.cfi_adjust_cfa_offset 8
	movl	$19, %esi
	movl	$19, %ecx
	movl	$19, %r9d
	leaq	40(%rsp), %rdi
	leaq	360(%rsp), %r13
	movq	%r13, %rdx
	leaq	520(%rsp), %r12
	movq	%r12, %r8
	pushq	%rbx
	.cfi_adjust_cfa_offset 8
	pushq	1400(%rsp)
	.cfi_adjust_cfa_offset 8
	pushq	1400(%rsp)
	.cfi_adjust_cfa_offset 8
	pushq	$19
	.cfi_adjust_cfa_offset 8
	pushq	%r14
	.cfi_adjust_cfa_offset 8
	pushq	$19
	.cfi_adjust_cfa_offset 8
	leaq	888(%rsp), %rax
	pushq	%rax
	.cfi_adjust_cfa_offset 8
	pushq	$19
	.cfi_adjust_cfa_offset 8
	pushq	%r15
	.cfi_adjust_cfa_offset 8
	pushq	$19
	.cfi_adjust_cfa_offset 8
	leaq	760(%rsp), %rax
	pushq	%rax
	.cfi_adjust_cfa_offset 8
	pushq	$19
	.cfi_adjust_cfa_offset 8
	leaq	1096(%rsp), %r15
	pushq	%r15
	.cfi_adjust_cfa_offset 8
	callq	fmonty
	addq	$112, %rsp
	.cfi_adjust_cfa_offset -112
	movl	$19, %esi
	movl	$19, %ecx
	leaq	32(%rsp), %r14
	movq	%r14, %rdi
	movq	%r12, %rdx
	movq	%rbp, %r8
	movl	%ebx, %r9d
	callq	swap_conditional
	movl	$19, %esi
	movl	$19, %ecx
	movq	%r13, %rdi
	movq	%r13, %r12
	movq	%r15, %rdx
	movq	%r15, %r13
	movq	%rbp, %r8
	movl	%ebx, %r9d
	callq	swap_conditional
	movq	(%rsp), %rax            # 8-byte Reload
	addl	%eax, %eax
	movzbl	%al, %ecx
	movq	%rcx, (%rsp)            # 8-byte Spill
	movzbl	%al, %ebp
	shrq	$7, %rbp
	movl	$19, %esi
	movl	$19, %ecx
	movq	%r14, %rdi
	leaq	512(%rsp), %r15
	movq	%r15, %rdx
	movq	%rbp, %r8
	movl	%ebx, %r9d
	callq	swap_conditional
	movl	$19, %esi
	movl	$19, %ecx
	movq	%r12, %rdi
	movq	%r13, %rdx
	movq	%r13, %r14
	movq	%rbp, %r8
	movl	%ebx, %r9d
	callq	swap_conditional
	subq	$8, %rsp
	.cfi_adjust_cfa_offset 8
	movl	$19, %esi
	movl	$19, %ecx
	movl	$19, %r9d
	leaq	680(%rsp), %r13
	movq	%r13, %rdi
	leaq	200(%rsp), %rdx
	leaq	840(%rsp), %r12
	movq	%r12, %r8
	pushq	%rbx
	.cfi_adjust_cfa_offset 8
	movq	1400(%rsp), %rax
	pushq	%rax
	.cfi_adjust_cfa_offset 8
	movq	1400(%rsp), %rax
	pushq	%rax
	.cfi_adjust_cfa_offset 8
	pushq	$19
	.cfi_adjust_cfa_offset 8
	pushq	%r14
	.cfi_adjust_cfa_offset 8
	pushq	$19
	.cfi_adjust_cfa_offset 8
	pushq	%r15
	.cfi_adjust_cfa_offset 8
	pushq	$19
	.cfi_adjust_cfa_offset 8
	leaq	424(%rsp), %rax
	pushq	%rax
	.cfi_adjust_cfa_offset 8
	pushq	$19
	.cfi_adjust_cfa_offset 8
	leaq	120(%rsp), %rax
	pushq	%rax
	.cfi_adjust_cfa_offset 8
	pushq	$19
	.cfi_adjust_cfa_offset 8
	leaq	1256(%rsp), %r15
	pushq	%r15
	.cfi_adjust_cfa_offset 8
	callq	fmonty
	addq	$112, %rsp
	.cfi_adjust_cfa_offset -112
	movl	$19, %esi
	movl	$19, %ecx
	movq	%r13, %rdi
	movq	%r12, %rdx
	movq	%r12, %r14
	movq	%rbp, %r8
	movl	%ebx, %r9d
	callq	swap_conditional
	movl	$19, %esi
	movl	$19, %ecx
	leaq	192(%rsp), %rdi
	movq	%rdi, %r12
	movq	%r15, %rdx
	movq	%rbp, %r8
	movl	%ebx, %r9d
	callq	swap_conditional
	movq	(%rsp), %rax            # 8-byte Reload
	addl	%eax, %eax
	movzbl	%al, %ebp
	shrq	$7, %rbp
	movl	$19, %esi
	movl	$19, %ecx
	movq	%r13, %rdi
	movq	%r14, %rdx
	movq	%rbp, %r8
	movl	%ebx, %r9d
	callq	swap_conditional
	movl	$19, %esi
	movl	$19, %ecx
	movq	%r12, %rdi
	movq	%r15, %rdx
	movq	%r15, %r12
	movq	%rbp, %r8
	movl	%ebx, %r9d
	callq	swap_conditional
	subq	$8, %rsp
	.cfi_adjust_cfa_offset 8
	movl	$19, %esi
	movl	$19, %ecx
	movl	$19, %r9d
	leaq	40(%rsp), %r13
	movq	%r13, %rdi
	leaq	360(%rsp), %rdx
	leaq	520(%rsp), %r15
	movq	%r15, %r8
	pushq	%rbx
	.cfi_adjust_cfa_offset 8
	movq	1400(%rsp), %rax
	pushq	%rax
	.cfi_adjust_cfa_offset 8
	movq	1400(%rsp), %rax
	pushq	%rax
	.cfi_adjust_cfa_offset 8
	pushq	$19
	.cfi_adjust_cfa_offset 8
	pushq	%r12
	.cfi_adjust_cfa_offset 8
	pushq	$19
	.cfi_adjust_cfa_offset 8
	pushq	%r14
	.cfi_adjust_cfa_offset 8
	pushq	$19
	.cfi_adjust_cfa_offset 8
	leaq	264(%rsp), %rax
	pushq	%rax
	.cfi_adjust_cfa_offset 8
	pushq	$19
	.cfi_adjust_cfa_offset 8
	leaq	760(%rsp), %rax
	pushq	%rax
	.cfi_adjust_cfa_offset 8
	pushq	$19
	.cfi_adjust_cfa_offset 8
	leaq	1096(%rsp), %r12
	pushq	%r12
	.cfi_adjust_cfa_offset 8
	callq	fmonty
	addq	$112, %rsp
	.cfi_adjust_cfa_offset -112
	movl	$19, %esi
	movl	$19, %ecx
	movq	%r13, %rdi
	movq	%r15, %rdx
	movq	%rbp, %r8
	movl	%ebx, %r9d
	callq	swap_conditional
	movl	$19, %esi
	movl	$19, %ecx
	leaq	352(%rsp), %rdi
	movq	%rdi, %r14
	movq	%r12, %rdx
	movq	%rbp, %r8
	movl	%ebx, %r9d
	callq	swap_conditional
	movq	(%rsp), %rcx            # 8-byte Reload
	shll	$2, %ecx
	movzbl	%cl, %eax
	movq	%rax, (%rsp)            # 8-byte Spill
	movzbl	%cl, %ebp
	shrq	$7, %rbp
	movl	$19, %esi
	movl	$19, %ecx
	movq	%r13, %rdi
	movq	%r15, %rdx
	movq	%rbp, %r8
	movl	%ebx, %r9d
	callq	swap_conditional
	movl	$19, %esi
	movl	$19, %ecx
	movq	%r14, %rdi
	movq	%r14, %r13
	movq	%r12, %rdx
	movq	%r12, %r15
	movq	%rbp, %r8
	movl	%ebx, %r9d
	callq	swap_conditional
	subq	$8, %rsp
	.cfi_adjust_cfa_offset 8
	movl	$19, %esi
	movl	$19, %ecx
	movl	$19, %r9d
	leaq	680(%rsp), %r14
	movq	%r14, %rdi
	leaq	200(%rsp), %rdx
	leaq	840(%rsp), %r12
	movq	%r12, %r8
	pushq	%rbx
	.cfi_adjust_cfa_offset 8
	movq	1400(%rsp), %rax
	pushq	%rax
	.cfi_adjust_cfa_offset 8
	movq	1400(%rsp), %rax
	pushq	%rax
	.cfi_adjust_cfa_offset 8
	pushq	$19
	.cfi_adjust_cfa_offset 8
	pushq	%r15
	.cfi_adjust_cfa_offset 8
	pushq	$19
	.cfi_adjust_cfa_offset 8
	leaq	568(%rsp), %rax
	pushq	%rax
	.cfi_adjust_cfa_offset 8
	pushq	$19
	.cfi_adjust_cfa_offset 8
	pushq	%r13
	.cfi_adjust_cfa_offset 8
	pushq	$19
	.cfi_adjust_cfa_offset 8
	leaq	120(%rsp), %rax
	pushq	%rax
	.cfi_adjust_cfa_offset 8
	pushq	$19
	.cfi_adjust_cfa_offset 8
	leaq	1256(%rsp), %r13
	pushq	%r13
	.cfi_adjust_cfa_offset 8
	callq	fmonty
	addq	$112, %rsp
	.cfi_adjust_cfa_offset -112
	movl	$19, %esi
	movl	$19, %ecx
	movq	%r14, %rdi
	movq	%r12, %rdx
	movq	%r12, %r14
	movq	%rbp, %r8
	movl	%ebx, %r9d
	callq	swap_conditional
	movl	$19, %esi
	movl	$19, %ecx
	leaq	192(%rsp), %rdi
	movq	%rdi, %r15
	movq	%r13, %rdx
	movq	%r13, %r12
	movq	%rbp, %r8
	movl	%ebx, %r9d
	callq	swap_conditional
	movq	(%rsp), %rax            # 8-byte Reload
	addl	%eax, %eax
	movzbl	%al, %ebp
	shrq	$7, %rbp
	movl	$19, %esi
	movl	$19, %ecx
	leaq	672(%rsp), %r13
	movq	%r13, %rdi
	movq	%r14, %rdx
	movq	%rbp, %r8
	movl	%ebx, %r9d
	callq	swap_conditional
	movl	$19, %esi
	movl	$19, %ecx
	movq	%r15, %rdi
	movq	%r12, %rdx
	movq	%r12, %r15
	movq	%rbp, %r8
	movl	%ebx, %r9d
	callq	swap_conditional
	subq	$8, %rsp
	.cfi_adjust_cfa_offset 8
	movl	$19, %esi
	movl	$19, %ecx
	movl	$19, %r9d
	leaq	40(%rsp), %r12
	movq	%r12, %rdi
	leaq	360(%rsp), %rdx
	leaq	520(%rsp), %r14
	movq	%r14, %r8
	pushq	%rbx
	.cfi_adjust_cfa_offset 8
	pushq	1400(%rsp)
	.cfi_adjust_cfa_offset 8
	pushq	1400(%rsp)
	.cfi_adjust_cfa_offset 8
	pushq	$19
	.cfi_adjust_cfa_offset 8
	pushq	%r15
	.cfi_adjust_cfa_offset 8
	pushq	$19
	.cfi_adjust_cfa_offset 8
	leaq	888(%rsp), %rax
	pushq	%rax
	.cfi_adjust_cfa_offset 8
	pushq	$19
	.cfi_adjust_cfa_offset 8
	leaq	264(%rsp), %rax
	pushq	%rax
	.cfi_adjust_cfa_offset 8
	pushq	$19
	.cfi_adjust_cfa_offset 8
	pushq	%r13
	.cfi_adjust_cfa_offset 8
	pushq	$19
	.cfi_adjust_cfa_offset 8
	leaq	1096(%rsp), %r13
	pushq	%r13
	.cfi_adjust_cfa_offset 8
	callq	fmonty
	addq	$112, %rsp
	.cfi_adjust_cfa_offset -112
	movl	$19, %esi
	movl	$19, %ecx
	movq	%r12, %rdi
	movq	%r14, %rdx
	movq	%r14, %r15
	movq	%rbp, %r8
	movl	%ebx, %r9d
	callq	swap_conditional
	movl	$19, %esi
	movl	$19, %ecx
	leaq	352(%rsp), %rdi
	movq	%rdi, %r12
	movq	%r13, %rdx
	movq	%rbp, %r8
	movl	%ebx, %r9d
	callq	swap_conditional
	movq	(%rsp), %rax            # 8-byte Reload
	shll	$2, %eax
	movzbl	%al, %r14d
	movq	%r14, %rbp
	shrq	$7, %rbp
	movl	$19, %esi
	movl	$19, %ecx
	leaq	32(%rsp), %rdi
	movq	%r15, %rdx
	movq	%rbp, %r8
	movl	%ebx, %r9d
	callq	swap_conditional
	movl	$19, %esi
	movl	$19, %ecx
	movq	%r12, %rdi
	movq	%r13, %rdx
	movq	%r13, %r15
	movq	%rbp, %r8
	movl	%ebx, %r9d
	callq	swap_conditional
	subq	$8, %rsp
	.cfi_adjust_cfa_offset 8
	movl	$19, %esi
	movl	$19, %ecx
	movl	$19, %r9d
	leaq	680(%rsp), %r12
	movq	%r12, %rdi
	leaq	200(%rsp), %rdx
	leaq	840(%rsp), %r13
	movq	%r13, %r8
	pushq	%rbx
	.cfi_adjust_cfa_offset 8
	pushq	1400(%rsp)
	.cfi_adjust_cfa_offset 8
	pushq	1400(%rsp)
	.cfi_adjust_cfa_offset 8
	pushq	$19
	.cfi_adjust_cfa_offset 8
	pushq	%r15
	.cfi_adjust_cfa_offset 8
	pushq	$19
	.cfi_adjust_cfa_offset 8
	leaq	568(%rsp), %rax
	pushq	%rax
	.cfi_adjust_cfa_offset 8
	pushq	$19
	.cfi_adjust_cfa_offset 8
	leaq	424(%rsp), %rax
	pushq	%rax
	.cfi_adjust_cfa_offset 8
	pushq	$19
	.cfi_adjust_cfa_offset 8
	leaq	120(%rsp), %rax
	pushq	%rax
	.cfi_adjust_cfa_offset 8
	pushq	$19
	.cfi_adjust_cfa_offset 8
	leaq	1256(%rsp), %r15
	pushq	%r15
	.cfi_adjust_cfa_offset 8
	callq	fmonty
	addq	$112, %rsp
	.cfi_adjust_cfa_offset -112
	movl	$19, %esi
	movl	$19, %ecx
	movq	%r12, %rdi
	movq	%r13, %rdx
	movq	%rbp, %r8
	movl	%ebx, %r9d
	callq	swap_conditional
	movl	$19, %esi
	movl	$19, %ecx
	leaq	192(%rsp), %rdi
	movq	%r15, %rdx
	movq	%rbp, %r8
	movl	%ebx, %r9d
	callq	swap_conditional
	leal	(%r14,%r14), %eax
	movzbl	%al, %ebp
	shrq	$7, %rbp
	movl	$19, %esi
	movl	$19, %ecx
	movq	%r12, %rdi
	movq	%r13, %rdx
	movq	%rbp, %r8
	movl	%ebx, %r9d
	callq	swap_conditional
	movl	$19, %esi
	movl	$19, %ecx
	leaq	192(%rsp), %rdi
	movq	%r15, %rdx
	movq	%r15, %r12
	movq	%rbp, %r8
	movl	%ebx, %r9d
	callq	swap_conditional
	subq	$8, %rsp
	.cfi_adjust_cfa_offset 8
	movl	$19, %esi
	movl	$19, %ecx
	movl	$19, %r9d
	leaq	40(%rsp), %r15
	movq	%r15, %rdi
	leaq	360(%rsp), %r13
	movq	%r13, %rdx
	leaq	520(%rsp), %r8
	pushq	%rbx
	.cfi_adjust_cfa_offset 8
	movq	1400(%rsp), %rax
	pushq	%rax
	.cfi_adjust_cfa_offset 8
	movq	1400(%rsp), %rax
	pushq	%rax
	.cfi_adjust_cfa_offset 8
	pushq	$19
	.cfi_adjust_cfa_offset 8
	pushq	%r12
	.cfi_adjust_cfa_offset 8
	pushq	$19
	.cfi_adjust_cfa_offset 8
	leaq	888(%rsp), %rax
	pushq	%rax
	.cfi_adjust_cfa_offset 8
	pushq	$19
	.cfi_adjust_cfa_offset 8
	leaq	264(%rsp), %rax
	pushq	%rax
	.cfi_adjust_cfa_offset 8
	pushq	$19
	.cfi_adjust_cfa_offset 8
	leaq	760(%rsp), %rax
	pushq	%rax
	.cfi_adjust_cfa_offset 8
	pushq	$19
	.cfi_adjust_cfa_offset 8
	leaq	1096(%rsp), %r12
	pushq	%r12
	.cfi_adjust_cfa_offset 8
	callq	fmonty
	addq	$112, %rsp
	.cfi_adjust_cfa_offset -112
	movl	$19, %esi
	movl	$19, %ecx
	movq	%r15, %rdi
	leaq	512(%rsp), %r15
	movq	%r15, %rdx
	movq	%rbp, %r8
	movl	%ebx, %r9d
	callq	swap_conditional
	movl	$19, %esi
	movl	$19, %ecx
	movq	%r13, %rdi
	movq	%r12, %rdx
	movq	%rbp, %r8
	movl	%ebx, %r9d
	callq	swap_conditional
	shll	$2, %r14d
	movzbl	%r14b, %ebp
	shrq	$7, %rbp
	movl	$19, %esi
	movl	$19, %ecx
	leaq	32(%rsp), %rdi
	movq	%r15, %rdx
	movq	%rbp, %r8
	movl	%ebx, %r9d
	callq	swap_conditional
	movl	$19, %esi
	movl	$19, %ecx
	movq	%r13, %rdi
	movq	%r13, %r14
	movq	%r12, %rdx
	movq	%rbp, %r8
	movl	%ebx, %r9d
	callq	swap_conditional
	subq	$8, %rsp
	.cfi_adjust_cfa_offset 8
	movl	$19, %esi
	movl	$19, %ecx
	movl	$19, %r9d
	leaq	680(%rsp), %r15
	movq	%r15, %rdi
	leaq	200(%rsp), %rdx
	leaq	840(%rsp), %r13
	movq	%r13, %r8
	pushq	%rbx
	.cfi_adjust_cfa_offset 8
	pushq	1400(%rsp)
	.cfi_adjust_cfa_offset 8
	pushq	1400(%rsp)
	.cfi_adjust_cfa_offset 8
	pushq	$19
	.cfi_adjust_cfa_offset 8
	pushq	%r12
	.cfi_adjust_cfa_offset 8
	pushq	$19
	.cfi_adjust_cfa_offset 8
	leaq	568(%rsp), %rax
	pushq	%rax
	.cfi_adjust_cfa_offset 8
	pushq	$19
	.cfi_adjust_cfa_offset 8
	pushq	%r14
	.cfi_adjust_cfa_offset 8
	pushq	$19
	.cfi_adjust_cfa_offset 8
	leaq	120(%rsp), %rax
	pushq	%rax
	.cfi_adjust_cfa_offset 8
	pushq	$19
	.cfi_adjust_cfa_offset 8
	leaq	1256(%rsp), %r14
	pushq	%r14
	.cfi_adjust_cfa_offset 8
	callq	fmonty
	addq	$112, %rsp
	.cfi_adjust_cfa_offset -112
	movl	$19, %esi
	movl	$19, %ecx
	movq	%r15, %rdi
	movq	%r13, %rdx
	movq	%r13, %r15
	movq	%rbp, %r8
	movl	%ebx, %r9d
	callq	swap_conditional
	movl	$19, %esi
	movl	$19, %ecx
	leaq	192(%rsp), %rdi
	movq	%rdi, %r12
	movq	%r14, %rdx
	movq	%r14, %r13
	movq	%rbp, %r8
	movl	%ebx, %r9d
	callq	swap_conditional
	movq	8(%rsp), %rax           # 8-byte Reload
	addq	$28, %rax
	cmpq	$28, 16(%rsp)           # 8-byte Folded Reload
	leaq	24(%rsp), %rcx
	cmovgq	%rax, %rcx
	cmpb	$0, 1392(%rsp)
	cmovneq	%rax, %rcx
	movzbl	(%rcx), %r14d
	movq	%r14, %rbp
	shrq	$7, %rbp
	movl	$19, %esi
	movl	$19, %ecx
	leaq	672(%rsp), %rdi
	movq	%r15, %rdx
	movq	%rbp, %r8
	movl	%ebx, %r9d
	callq	swap_conditional
	movl	$19, %esi
	movl	$19, %ecx
	movq	%r12, %rdi
	movq	%r13, %rdx
	movq	%r13, %r12
	movq	%rbp, %r8
	movl	%ebx, %r9d
	callq	swap_conditional
	subq	$8, %rsp
	.cfi_adjust_cfa_offset 8
	movl	$19, %esi
	movl	$19, %ecx
	movl	$19, %r9d
	leaq	40(%rsp), %r13
	movq	%r13, %rdi
	leaq	360(%rsp), %r15
	movq	%r15, %rdx
	leaq	520(%rsp), %r8
	pushq	%rbx
	.cfi_adjust_cfa_offset 8
	pushq	1400(%rsp)
	.cfi_adjust_cfa_offset 8
	pushq	1400(%rsp)
	.cfi_adjust_cfa_offset 8
	pushq	$19
	.cfi_adjust_cfa_offset 8
	pushq	%r12
	.cfi_adjust_cfa_offset 8
	pushq	$19
	.cfi_adjust_cfa_offset 8
	leaq	888(%rsp), %rax
	pushq	%rax
	.cfi_adjust_cfa_offset 8
	pushq	$19
	.cfi_adjust_cfa_offset 8
	leaq	264(%rsp), %rax
	pushq	%rax
	.cfi_adjust_cfa_offset 8
	pushq	$19
	.cfi_adjust_cfa_offset 8
	leaq	760(%rsp), %rax
	pushq	%rax
	.cfi_adjust_cfa_offset 8
	pushq	$19
	.cfi_adjust_cfa_offset 8
	leaq	1096(%rsp), %r12
	pushq	%r12
	.cfi_adjust_cfa_offset 8
	callq	fmonty
	addq	$112, %rsp
	.cfi_adjust_cfa_offset -112
	movl	$19, %esi
	movl	$19, %ecx
	movq	%r13, %rdi
	leaq	512(%rsp), %r13
	movq	%r13, %rdx
	movq	%rbp, %r8
	movl	%ebx, %r9d
	callq	swap_conditional
	movl	$19, %esi
	movl	$19, %ecx
	movq	%r15, %rdi
	movq	%r12, %rdx
	movq	%rbp, %r8
	movl	%ebx, %r9d
	callq	swap_conditional
	leal	(%r14,%r14), %eax
	movzbl	%al, %r14d
	movzbl	%al, %ebp
	shrq	$7, %rbp
	movl	$19, %esi
	movl	$19, %ecx
	leaq	32(%rsp), %rdi
	movq	%r13, %rdx
	movq	%rbp, %r8
	movl	%ebx, %r9d
	callq	swap_conditional
	movl	$19, %esi
	movl	$19, %ecx
	movq	%r15, %rdi
	movq	%r12, %rdx
	movq	%r12, %r13
	movq	%rbp, %r8
	movl	%ebx, %r9d
	callq	swap_conditional
	subq	$8, %rsp
	.cfi_adjust_cfa_offset 8
	movl	$19, %esi
	movl	$19, %ecx
	movl	$19, %r9d
	leaq	680(%rsp), %r15
	movq	%r15, %rdi
	leaq	200(%rsp), %rdx
	leaq	840(%rsp), %r12
	movq	%r12, %r8
	pushq	%rbx
	.cfi_adjust_cfa_offset 8
	movq	1400(%rsp), %rax
	pushq	%rax
	.cfi_adjust_cfa_offset 8
	movq	1400(%rsp), %rax
	pushq	%rax
	.cfi_adjust_cfa_offset 8
	pushq	$19
	.cfi_adjust_cfa_offset 8
	pushq	%r13
	.cfi_adjust_cfa_offset 8
	pushq	$19
	.cfi_adjust_cfa_offset 8
	leaq	568(%rsp), %rax
	pushq	%rax
	.cfi_adjust_cfa_offset 8
	pushq	$19
	.cfi_adjust_cfa_offset 8
	leaq	424(%rsp), %rax
	pushq	%rax
	.cfi_adjust_cfa_offset 8
	pushq	$19
	.cfi_adjust_cfa_offset 8
	leaq	120(%rsp), %rax
	pushq	%rax
	.cfi_adjust_cfa_offset 8
	pushq	$19
	.cfi_adjust_cfa_offset 8
	leaq	1256(%rsp), %r13
	pushq	%r13
	.cfi_adjust_cfa_offset 8
	callq	fmonty
	addq	$112, %rsp
	.cfi_adjust_cfa_offset -112
	movl	$19, %esi
	movl	$19, %ecx
	movq	%r15, %rdi
	movq	%r12, %rdx
	movq	%rbp, %r8
	movl	%ebx, %r9d
	callq	swap_conditional
	movl	$19, %esi
	movl	$19, %ecx
	leaq	192(%rsp), %r15
	movq	%r15, %rdi
	movq	%r13, %rdx
	movq	%rbp, %r8
	movl	%ebx, %r9d
	callq	swap_conditional
	leal	(%r14,%r14), %eax
	movzbl	%al, %ebp
	shrq	$7, %rbp
	movl	$19, %esi
	movl	$19, %ecx
	leaq	672(%rsp), %rdi
	movq	%r12, %rdx
	movq	%rbp, %r8
	movl	%ebx, %r9d
	callq	swap_conditional
	movl	$19, %esi
	movl	$19, %ecx
	movq	%r15, %rdi
	movq	%r13, %rdx
	movq	%r13, %r12
	movq	%rbp, %r8
	movl	%ebx, %r9d
	callq	swap_conditional
	subq	$8, %rsp
	.cfi_adjust_cfa_offset 8
	movl	$19, %esi
	movl	$19, %ecx
	movl	$19, %r9d
	leaq	40(%rsp), %r13
	movq	%r13, %rdi
	leaq	360(%rsp), %rdx
	leaq	520(%rsp), %r8
	pushq	%rbx
	.cfi_adjust_cfa_offset 8
	pushq	1400(%rsp)
	.cfi_adjust_cfa_offset 8
	pushq	1400(%rsp)
	.cfi_adjust_cfa_offset 8
	pushq	$19
	.cfi_adjust_cfa_offset 8
	pushq	%r12
	.cfi_adjust_cfa_offset 8
	pushq	$19
	.cfi_adjust_cfa_offset 8
	leaq	888(%rsp), %rax
	pushq	%rax
	.cfi_adjust_cfa_offset 8
	pushq	$19
	.cfi_adjust_cfa_offset 8
	pushq	%r15
	.cfi_adjust_cfa_offset 8
	pushq	$19
	.cfi_adjust_cfa_offset 8
	leaq	760(%rsp), %rax
	pushq	%rax
	.cfi_adjust_cfa_offset 8
	pushq	$19
	.cfi_adjust_cfa_offset 8
	leaq	1096(%rsp), %r15
	pushq	%r15
	.cfi_adjust_cfa_offset 8
	callq	fmonty
	addq	$112, %rsp
	.cfi_adjust_cfa_offset -112
	movl	$19, %esi
	movl	$19, %ecx
	movq	%r13, %rdi
	leaq	512(%rsp), %r12
	movq	%r12, %rdx
	movq	%rbp, %r8
	movl	%ebx, %r9d
	callq	swap_conditional
	movl	$19, %esi
	movl	$19, %ecx
	leaq	352(%rsp), %rdi
	movq	%r15, %rdx
	movq	%rbp, %r8
	movl	%ebx, %r9d
	callq	swap_conditional
	shll	$2, %r14d
	movzbl	%r14b, %eax
	movq	%rax, (%rsp)            # 8-byte Spill
	movzbl	%r14b, %ebp
	shrq	$7, %rbp
	movl	$19, %esi
	movl	$19, %ecx
	movq	%r13, %rdi
	movq	%r12, %rdx
	movq	%rbp, %r8
	movl	%ebx, %r9d
	callq	swap_conditional
	movl	$19, %esi
	movl	$19, %ecx
	leaq	352(%rsp), %rdi
	movq	%rdi, %r13
	movq	%r15, %rdx
	movq	%r15, %r12
	movq	%rbp, %r8
	movl	%ebx, %r9d
	callq	swap_conditional
	subq	$8, %rsp
	.cfi_adjust_cfa_offset 8
	movl	$19, %esi
	movl	$19, %ecx
	movl	$19, %r9d
	leaq	680(%rsp), %r14
	movq	%r14, %rdi
	leaq	200(%rsp), %rdx
	leaq	840(%rsp), %r15
	movq	%r15, %r8
	pushq	%rbx
	.cfi_adjust_cfa_offset 8
	movq	1400(%rsp), %rax
	pushq	%rax
	.cfi_adjust_cfa_offset 8
	movq	1400(%rsp), %rax
	pushq	%rax
	.cfi_adjust_cfa_offset 8
	pushq	$19
	.cfi_adjust_cfa_offset 8
	pushq	%r12
	.cfi_adjust_cfa_offset 8
	pushq	$19
	.cfi_adjust_cfa_offset 8
	leaq	568(%rsp), %rax
	pushq	%rax
	.cfi_adjust_cfa_offset 8
	pushq	$19
	.cfi_adjust_cfa_offset 8
	pushq	%r13
	.cfi_adjust_cfa_offset 8
	pushq	$19
	.cfi_adjust_cfa_offset 8
	leaq	120(%rsp), %rax
	pushq	%rax
	.cfi_adjust_cfa_offset 8
	pushq	$19
	.cfi_adjust_cfa_offset 8
	leaq	1256(%rsp), %r13
	pushq	%r13
	.cfi_adjust_cfa_offset 8
	callq	fmonty
	addq	$112, %rsp
	.cfi_adjust_cfa_offset -112
	movl	$19, %esi
	movl	$19, %ecx
	movq	%r14, %rdi
	movq	%r15, %rdx
	movq	%rbp, %r8
	movl	%ebx, %r9d
	callq	swap_conditional
	movl	$19, %esi
	movl	$19, %ecx
	leaq	192(%rsp), %rdi
	movq	%rdi, %r12
	movq	%r13, %rdx
	movq	%rbp, %r8
	movl	%ebx, %r9d
	callq	swap_conditional
	movq	(%rsp), %rax            # 8-byte Reload
	addl	%eax, %eax
	movzbl	%al, %ebp
	shrq	$7, %rbp
	movl	$19, %esi
	movl	$19, %ecx
	movq	%r14, %rdi
	movq	%r15, %rdx
	movq	%rbp, %r8
	movl	%ebx, %r9d
	callq	swap_conditional
	movl	$19, %esi
	movl	$19, %ecx
	movq	%r12, %rdi
	movq	%r13, %rdx
	movq	%rbp, %r8
	movl	%ebx, %r9d
	callq	swap_conditional
	subq	$8, %rsp
	.cfi_adjust_cfa_offset 8
	movl	$19, %esi
	movl	$19, %ecx
	movl	$19, %r9d
	leaq	40(%rsp), %r14
	movq	%r14, %rdi
	leaq	360(%rsp), %rdx
	leaq	520(%rsp), %r8
	pushq	%rbx
	.cfi_adjust_cfa_offset 8
	movq	1400(%rsp), %rax
	pushq	%rax
	.cfi_adjust_cfa_offset 8
	movq	1400(%rsp), %rax
	pushq	%rax
	.cfi_adjust_cfa_offset 8
	pushq	$19
	.cfi_adjust_cfa_offset 8
	pushq	%r13
	.cfi_adjust_cfa_offset 8
	pushq	$19
	.cfi_adjust_cfa_offset 8
	pushq	%r15
	.cfi_adjust_cfa_offset 8
	pushq	$19
	.cfi_adjust_cfa_offset 8
	pushq	%r12
	.cfi_adjust_cfa_offset 8
	pushq	$19
	.cfi_adjust_cfa_offset 8
	leaq	760(%rsp), %rax
	pushq	%rax
	.cfi_adjust_cfa_offset 8
	pushq	$19
	.cfi_adjust_cfa_offset 8
	leaq	1096(%rsp), %r12
	pushq	%r12
	.cfi_adjust_cfa_offset 8
	callq	fmonty
	addq	$112, %rsp
	.cfi_adjust_cfa_offset -112
	movl	$19, %esi
	movl	$19, %ecx
	movq	%r14, %rdi
	movq	%r14, %r15
	leaq	512(%rsp), %rdx
	movq	%rbp, %r8
	movl	%ebx, %r9d
	callq	swap_conditional
	movl	$19, %esi
	movl	$19, %ecx
	leaq	352(%rsp), %rdi
	movq	%rdi, %r13
	movq	%r12, %rdx
	movq	%rbp, %r8
	movl	%ebx, %r9d
	callq	swap_conditional
	movq	(%rsp), %rax            # 8-byte Reload
	shll	$2, %eax
	movzbl	%al, %eax
	movq	%rax, %rbp
	movq	%rax, %r14
	movq	%rax, (%rsp)            # 8-byte Spill
	shrq	$7, %rbp
	movl	$19, %esi
	movl	$19, %ecx
	movq	%r15, %rdi
	leaq	512(%rsp), %rdx
	movq	%rbp, %r8
	movl	%ebx, %r9d
	callq	swap_conditional
	movl	$19, %esi
	movl	$19, %ecx
	movq	%r13, %rdi
	movq	%r12, %rdx
	movq	%r12, %r15
	movq	%rbp, %r8
	movl	%ebx, %r9d
	callq	swap_conditional
	subq	$8, %rsp
	.cfi_adjust_cfa_offset 8
	movl	$19, %esi
	movl	$19, %ecx
	movl	$19, %r9d
	leaq	680(%rsp), %r12
	movq	%r12, %rdi
	leaq	200(%rsp), %rdx
	leaq	840(%rsp), %r13
	movq	%r13, %r8
	pushq	%rbx
	.cfi_adjust_cfa_offset 8
	pushq	1400(%rsp)
	.cfi_adjust_cfa_offset 8
	pushq	1400(%rsp)
	.cfi_adjust_cfa_offset 8
	pushq	$19
	.cfi_adjust_cfa_offset 8
	pushq	%r15
	.cfi_adjust_cfa_offset 8
	pushq	$19
	.cfi_adjust_cfa_offset 8
	leaq	568(%rsp), %rax
	pushq	%rax
	.cfi_adjust_cfa_offset 8
	pushq	$19
	.cfi_adjust_cfa_offset 8
	leaq	424(%rsp), %rax
	pushq	%rax
	.cfi_adjust_cfa_offset 8
	pushq	$19
	.cfi_adjust_cfa_offset 8
	leaq	120(%rsp), %rax
	pushq	%rax
	.cfi_adjust_cfa_offset 8
	pushq	$19
	.cfi_adjust_cfa_offset 8
	leaq	1256(%rsp), %r15
	pushq	%r15
	.cfi_adjust_cfa_offset 8
	callq	fmonty
	addq	$112, %rsp
	.cfi_adjust_cfa_offset -112
	movl	$19, %esi
	movl	$19, %ecx
	movq	%r12, %rdi
	movq	%r13, %rdx
	movq	%rbp, %r8
	movl	%ebx, %r9d
	callq	swap_conditional
	movl	$19, %esi
	movl	$19, %ecx
	leaq	192(%rsp), %rdi
	movq	%r15, %rdx
	movq	%rbp, %r8
	movl	%ebx, %r9d
	callq	swap_conditional
	leal	(%r14,%r14), %eax
	movzbl	%al, %ebp
	shrq	$7, %rbp
	movl	$19, %esi
	movl	$19, %ecx
	movq	%r12, %rdi
	movq	%r13, %rdx
	movq	%rbp, %r8
	movl	%ebx, %r9d
	callq	swap_conditional
	movl	$19, %esi
	movl	$19, %ecx
	leaq	192(%rsp), %rdi
	movq	%rdi, %r13
	movq	%r15, %rdx
	movq	%r15, %r14
	movq	%rbp, %r8
	movl	%ebx, %r9d
	callq	swap_conditional
	subq	$8, %rsp
	.cfi_adjust_cfa_offset 8
	movl	$19, %esi
	movl	$19, %ecx
	movl	$19, %r9d
	leaq	40(%rsp), %r15
	movq	%r15, %rdi
	leaq	360(%rsp), %rdx
	leaq	520(%rsp), %r12
	movq	%r12, %r8
	pushq	%rbx
	.cfi_adjust_cfa_offset 8
	movq	1400(%rsp), %rax
	pushq	%rax
	.cfi_adjust_cfa_offset 8
	movq	1400(%rsp), %rax
	pushq	%rax
	.cfi_adjust_cfa_offset 8
	pushq	$19
	.cfi_adjust_cfa_offset 8
	pushq	%r14
	.cfi_adjust_cfa_offset 8
	pushq	$19
	.cfi_adjust_cfa_offset 8
	leaq	888(%rsp), %rax
	pushq	%rax
	.cfi_adjust_cfa_offset 8
	pushq	$19
	.cfi_adjust_cfa_offset 8
	pushq	%r13
	.cfi_adjust_cfa_offset 8
	pushq	$19
	.cfi_adjust_cfa_offset 8
	leaq	760(%rsp), %rax
	pushq	%rax
	.cfi_adjust_cfa_offset 8
	pushq	$19
	.cfi_adjust_cfa_offset 8
	leaq	1096(%rsp), %r13
	pushq	%r13
	.cfi_adjust_cfa_offset 8
	callq	fmonty
	addq	$112, %rsp
	.cfi_adjust_cfa_offset -112
	movl	$19, %esi
	movl	$19, %ecx
	movq	%r15, %rdi
	movq	%r15, %r14
	movq	%r12, %rdx
	movq	%rbp, %r8
	movl	%ebx, %r9d
	callq	swap_conditional
	movl	$19, %esi
	movl	$19, %ecx
	leaq	352(%rsp), %rdi
	movq	%rdi, %r15
	movq	%r13, %rdx
	movq	%rbp, %r8
	movl	%ebx, %r9d
	callq	swap_conditional
	movq	(%rsp), %rax            # 8-byte Reload
	shll	$2, %eax
	movzbl	%al, %ebp
	shrq	$7, %rbp
	movl	$19, %esi
	movl	$19, %ecx
	movq	%r14, %rdi
	movq	%r12, %rdx
	movq	%rbp, %r8
	movl	%ebx, %r9d
	callq	swap_conditional
	movl	$19, %esi
	movl	$19, %ecx
	movq	%r15, %rdi
	movq	%r15, %r12
	movq	%r13, %rdx
	movq	%r13, %r14
	movq	%rbp, %r8
	movl	%ebx, %r9d
	callq	swap_conditional
	subq	$8, %rsp
	.cfi_adjust_cfa_offset 8
	movl	$19, %esi
	movl	$19, %ecx
	movl	$19, %r9d
	leaq	680(%rsp), %r13
	movq	%r13, %rdi
	leaq	200(%rsp), %rdx
	leaq	840(%rsp), %r15
	movq	%r15, %r8
	pushq	%rbx
	.cfi_adjust_cfa_offset 8
	pushq	1400(%rsp)
	.cfi_adjust_cfa_offset 8
	pushq	1400(%rsp)
	.cfi_adjust_cfa_offset 8
	pushq	$19
	.cfi_adjust_cfa_offset 8
	pushq	%r14
	.cfi_adjust_cfa_offset 8
	pushq	$19
	.cfi_adjust_cfa_offset 8
	leaq	568(%rsp), %rax
	pushq	%rax
	.cfi_adjust_cfa_offset 8
	pushq	$19
	.cfi_adjust_cfa_offset 8
	pushq	%r12
	.cfi_adjust_cfa_offset 8
	pushq	$19
	.cfi_adjust_cfa_offset 8
	leaq	120(%rsp), %rax
	pushq	%rax
	.cfi_adjust_cfa_offset 8
	pushq	$19
	.cfi_adjust_cfa_offset 8
	leaq	1256(%rsp), %r14
	pushq	%r14
	.cfi_adjust_cfa_offset 8
	callq	fmonty
	addq	$112, %rsp
	.cfi_adjust_cfa_offset -112
	movl	$19, %esi
	movl	$19, %ecx
	movq	%r13, %rdi
	movq	%r13, %r12
	movq	%r15, %rdx
	movq	%rbp, %r8
	movl	%ebx, %r9d
	callq	swap_conditional
	movl	$19, %esi
	movl	$19, %ecx
	leaq	192(%rsp), %r13
	movq	%r13, %rdi
	movq	%r14, %rdx
	movq	%rbp, %r8
	movl	%ebx, %r9d
	callq	swap_conditional
	movq	8(%rsp), %rax           # 8-byte Reload
	addq	$27, %rax
	cmpq	$27, 16(%rsp)           # 8-byte Folded Reload
	leaq	24(%rsp), %rcx
	cmovgq	%rax, %rcx
	cmpb	$0, 1392(%rsp)
	cmovneq	%rax, %rcx
	movzbl	(%rcx), %ebp
	movq	%rbp, (%rsp)            # 8-byte Spill
	shrq	$7, %rbp
	movl	$19, %esi
	movl	$19, %ecx
	movq	%r12, %rdi
	movq	%r15, %rdx
	movq	%rbp, %r8
	movl	%ebx, %r9d
	callq	swap_conditional
	movl	$19, %esi
	movl	$19, %ecx
	movq	%r13, %rdi
	movq	%r14, %rdx
	movq	%rbp, %r8
	movl	%ebx, %r9d
	callq	swap_conditional
	subq	$8, %rsp
	.cfi_adjust_cfa_offset 8
	movl	$19, %esi
	movl	$19, %ecx
	movl	$19, %r9d
	leaq	40(%rsp), %rdi
	leaq	360(%rsp), %r15
	movq	%r15, %rdx
	leaq	520(%rsp), %r13
	movq	%r13, %r8
	pushq	%rbx
	.cfi_adjust_cfa_offset 8
	pushq	1400(%rsp)
	.cfi_adjust_cfa_offset 8
	movq	1400(%rsp), %rax
	pushq	%rax
	.cfi_adjust_cfa_offset 8
	pushq	$19
	.cfi_adjust_cfa_offset 8
	pushq	%r14
	.cfi_adjust_cfa_offset 8
	pushq	$19
	.cfi_adjust_cfa_offset 8
	leaq	888(%rsp), %rax
	pushq	%rax
	.cfi_adjust_cfa_offset 8
	pushq	$19
	.cfi_adjust_cfa_offset 8
	leaq	264(%rsp), %rax
	pushq	%rax
	.cfi_adjust_cfa_offset 8
	pushq	$19
	.cfi_adjust_cfa_offset 8
	pushq	%r12
	.cfi_adjust_cfa_offset 8
	pushq	$19
	.cfi_adjust_cfa_offset 8
	leaq	1096(%rsp), %r12
	pushq	%r12
	.cfi_adjust_cfa_offset 8
	callq	fmonty
	addq	$112, %rsp
	.cfi_adjust_cfa_offset -112
	movl	$19, %esi
	movl	$19, %ecx
	leaq	32(%rsp), %rdi
	movq	%r13, %rdx
	movq	%rbp, %r8
	movl	%ebx, %r9d
	callq	swap_conditional
	movl	$19, %esi
	movl	$19, %ecx
	movq	%r15, %rdi
	movq	%r12, %rdx
	movq	%rbp, %r8
	movl	%ebx, %r9d
	callq	swap_conditional
	movq	(%rsp), %rax            # 8-byte Reload
	addl	%eax, %eax
	movzbl	%al, %r14d
	movq	%r14, (%rsp)            # 8-byte Spill
	movzbl	%al, %ebp
	shrq	$7, %rbp
	movl	$19, %esi
	movl	$19, %ecx
	leaq	32(%rsp), %rdi
	movq	%r13, %rdx
	movq	%rbp, %r8
	movl	%ebx, %r9d
	callq	swap_conditional
	movl	$19, %esi
	movl	$19, %ecx
	movq	%r15, %rdi
	movq	%r12, %rdx
	movq	%r12, %r13
	movq	%rbp, %r8
	movl	%ebx, %r9d
	callq	swap_conditional
	subq	$8, %rsp
	.cfi_adjust_cfa_offset 8
	movl	$19, %esi
	movl	$19, %ecx
	movl	$19, %r9d
	leaq	680(%rsp), %r15
	movq	%r15, %rdi
	leaq	200(%rsp), %rdx
	leaq	840(%rsp), %r12
	movq	%r12, %r8
	pushq	%rbx
	.cfi_adjust_cfa_offset 8
	movq	1400(%rsp), %rax
	pushq	%rax
	.cfi_adjust_cfa_offset 8
	movq	1400(%rsp), %rax
	pushq	%rax
	.cfi_adjust_cfa_offset 8
	pushq	$19
	.cfi_adjust_cfa_offset 8
	pushq	%r13
	.cfi_adjust_cfa_offset 8
	pushq	$19
	.cfi_adjust_cfa_offset 8
	leaq	568(%rsp), %rax
	pushq	%rax
	.cfi_adjust_cfa_offset 8
	pushq	$19
	.cfi_adjust_cfa_offset 8
	leaq	424(%rsp), %rax
	pushq	%rax
	.cfi_adjust_cfa_offset 8
	pushq	$19
	.cfi_adjust_cfa_offset 8
	leaq	120(%rsp), %rax
	pushq	%rax
	.cfi_adjust_cfa_offset 8
	pushq	$19
	.cfi_adjust_cfa_offset 8
	leaq	1256(%rsp), %r13
	pushq	%r13
	.cfi_adjust_cfa_offset 8
	callq	fmonty
	addq	$112, %rsp
	.cfi_adjust_cfa_offset -112
	movl	$19, %esi
	movl	$19, %ecx
	movq	%r15, %rdi
	movq	%r12, %rdx
	movq	%rbp, %r8
	movl	%ebx, %r9d
	callq	swap_conditional
	movl	$19, %esi
	movl	$19, %ecx
	leaq	192(%rsp), %rdi
	movq	%rdi, %r12
	movq	%r13, %rdx
	movq	%rbp, %r8
	movl	%ebx, %r9d
	callq	swap_conditional
	leal	(%r14,%r14), %eax
	movzbl	%al, %ebp
	shrq	$7, %rbp
	movl	$19, %esi
	movl	$19, %ecx
	movq	%r15, %rdi
	leaq	832(%rsp), %rdx
	movq	%rbp, %r8
	movl	%ebx, %r9d
	callq	swap_conditional
	movl	$19, %esi
	movl	$19, %ecx
	movq	%r12, %rdi
	movq	%r12, %r15
	movq	%r13, %rdx
	movq	%r13, %r14
	movq	%rbp, %r8
	movl	%ebx, %r9d
	callq	swap_conditional
	subq	$8, %rsp
	.cfi_adjust_cfa_offset 8
	movl	$19, %esi
	movl	$19, %ecx
	movl	$19, %r9d
	leaq	40(%rsp), %r12
	movq	%r12, %rdi
	leaq	360(%rsp), %rdx
	leaq	520(%rsp), %r13
	movq	%r13, %r8
	pushq	%rbx
	.cfi_adjust_cfa_offset 8
	movq	1400(%rsp), %rax
	pushq	%rax
	.cfi_adjust_cfa_offset 8
	movq	1400(%rsp), %rax
	pushq	%rax
	.cfi_adjust_cfa_offset 8
	pushq	$19
	.cfi_adjust_cfa_offset 8
	pushq	%r14
	.cfi_adjust_cfa_offset 8
	pushq	$19
	.cfi_adjust_cfa_offset 8
	leaq	888(%rsp), %rax
	pushq	%rax
	.cfi_adjust_cfa_offset 8
	pushq	$19
	.cfi_adjust_cfa_offset 8
	pushq	%r15
	.cfi_adjust_cfa_offset 8
	pushq	$19
	.cfi_adjust_cfa_offset 8
	leaq	760(%rsp), %rax
	pushq	%rax
	.cfi_adjust_cfa_offset 8
	pushq	$19
	.cfi_adjust_cfa_offset 8
	leaq	1096(%rsp), %r15
	pushq	%r15
	.cfi_adjust_cfa_offset 8
	callq	fmonty
	addq	$112, %rsp
	.cfi_adjust_cfa_offset -112
	movl	$19, %esi
	movl	$19, %ecx
	movq	%r12, %rdi
	movq	%r13, %rdx
	movq	%rbp, %r8
	movl	%ebx, %r9d
	callq	swap_conditional
	movl	$19, %esi
	movl	$19, %ecx
	leaq	352(%rsp), %rdi
	movq	%rdi, %r14
	movq	%r15, %rdx
	movq	%rbp, %r8
	movl	%ebx, %r9d
	callq	swap_conditional
	movq	(%rsp), %rcx            # 8-byte Reload
	shll	$2, %ecx
	movzbl	%cl, %eax
	movq	%rax, (%rsp)            # 8-byte Spill
	movzbl	%cl, %ebp
	shrq	$7, %rbp
	movl	$19, %esi
	movl	$19, %ecx
	movq	%r12, %rdi
	movq	%r13, %rdx
	movq	%rbp, %r8
	movl	%ebx, %r9d
	callq	swap_conditional
	movl	$19, %esi
	movl	$19, %ecx
	movq	%r14, %rdi
	movq	%r15, %rdx
	movq	%rbp, %r8
	movl	%ebx, %r9d
	callq	swap_conditional
	subq	$8, %rsp
	.cfi_adjust_cfa_offset 8
	movl	$19, %esi
	movl	$19, %ecx
	movl	$19, %r9d
	leaq	680(%rsp), %r13
	movq	%r13, %rdi
	leaq	200(%rsp), %rdx
	leaq	840(%rsp), %r12
	movq	%r12, %r8
	pushq	%rbx
	.cfi_adjust_cfa_offset 8
	movq	1400(%rsp), %rax
	pushq	%rax
	.cfi_adjust_cfa_offset 8
	pushq	1400(%rsp)
	.cfi_adjust_cfa_offset 8
	pushq	$19
	.cfi_adjust_cfa_offset 8
	pushq	%r15
	.cfi_adjust_cfa_offset 8
	pushq	$19
	.cfi_adjust_cfa_offset 8
	leaq	568(%rsp), %rax
	pushq	%rax
	.cfi_adjust_cfa_offset 8
	pushq	$19
	.cfi_adjust_cfa_offset 8
	pushq	%r14
	.cfi_adjust_cfa_offset 8
	pushq	$19
	.cfi_adjust_cfa_offset 8
	leaq	120(%rsp), %rax
	pushq	%rax
	.cfi_adjust_cfa_offset 8
	pushq	$19
	.cfi_adjust_cfa_offset 8
	leaq	1256(%rsp), %r14
	pushq	%r14
	.cfi_adjust_cfa_offset 8
	callq	fmonty
	addq	$112, %rsp
	.cfi_adjust_cfa_offset -112
	movl	$19, %esi
	movl	$19, %ecx
	movq	%r13, %rdi
	movq	%r12, %rdx
	movq	%rbp, %r8
	movl	%ebx, %r9d
	callq	swap_conditional
	movl	$19, %esi
	movl	$19, %ecx
	leaq	192(%rsp), %rdi
	movq	%rdi, %r15
	movq	%r14, %rdx
	movq	%rbp, %r8
	movl	%ebx, %r9d
	callq	swap_conditional
	movq	(%rsp), %rax            # 8-byte Reload
	addl	%eax, %eax
	movzbl	%al, %ebp
	shrq	$7, %rbp
	movl	$19, %esi
	movl	$19, %ecx
	movq	%r13, %rdi
	movq	%r12, %rdx
	movq	%rbp, %r8
	movl	%ebx, %r9d
	callq	swap_conditional
	movl	$19, %esi
	movl	$19, %ecx
	movq	%r15, %rdi
	movq	%r14, %rdx
	movq	%r14, %r12
	movq	%rbp, %r8
	movl	%ebx, %r9d
	callq	swap_conditional
	subq	$8, %rsp
	.cfi_adjust_cfa_offset 8
	movl	$19, %esi
	movl	$19, %ecx
	movl	$19, %r9d
	leaq	40(%rsp), %r15
	movq	%r15, %rdi
	leaq	360(%rsp), %r14
	movq	%r14, %rdx
	leaq	520(%rsp), %r13
	movq	%r13, %r8
	pushq	%rbx
	.cfi_adjust_cfa_offset 8
	pushq	1400(%rsp)
	.cfi_adjust_cfa_offset 8
	pushq	1400(%rsp)
	.cfi_adjust_cfa_offset 8
	pushq	$19
	.cfi_adjust_cfa_offset 8
	pushq	%r12
	.cfi_adjust_cfa_offset 8
	pushq	$19
	.cfi_adjust_cfa_offset 8
	leaq	888(%rsp), %rax
	pushq	%rax
	.cfi_adjust_cfa_offset 8
	pushq	$19
	.cfi_adjust_cfa_offset 8
	leaq	264(%rsp), %rax
	pushq	%rax
	.cfi_adjust_cfa_offset 8
	pushq	$19
	.cfi_adjust_cfa_offset 8
	leaq	760(%rsp), %rax
	pushq	%rax
	.cfi_adjust_cfa_offset 8
	pushq	$19
	.cfi_adjust_cfa_offset 8
	leaq	1096(%rsp), %r12
	pushq	%r12
	.cfi_adjust_cfa_offset 8
	callq	fmonty
	addq	$112, %rsp
	.cfi_adjust_cfa_offset -112
	movl	$19, %esi
	movl	$19, %ecx
	movq	%r15, %rdi
	movq	%r13, %rdx
	movq	%rbp, %r8
	movl	%ebx, %r9d
	callq	swap_conditional
	movl	$19, %esi
	movl	$19, %ecx
	movq	%r14, %rdi
	movq	%r12, %rdx
	movq	%rbp, %r8
	movl	%ebx, %r9d
	callq	swap_conditional
	movq	(%rsp), %rax            # 8-byte Reload
	shll	$2, %eax
	movzbl	%al, %eax
	movq	%rax, %rbp
	movq	%rax, %r14
	movq	%rax, (%rsp)            # 8-byte Spill
	shrq	$7, %rbp
	movl	$19, %esi
	movl	$19, %ecx
	movq	%r15, %rdi
	movq	%r13, %rdx
	movq	%rbp, %r8
	movl	%ebx, %r9d
	callq	swap_conditional
	movl	$19, %esi
	movl	$19, %ecx
	leaq	352(%rsp), %rdi
	movq	%r12, %rdx
	movq	%r12, %r15
	movq	%rbp, %r8
	movl	%ebx, %r9d
	callq	swap_conditional
	subq	$8, %rsp
	.cfi_adjust_cfa_offset 8
	movl	$19, %esi
	movl	$19, %ecx
	movl	$19, %r9d
	leaq	680(%rsp), %r12
	movq	%r12, %rdi
	leaq	200(%rsp), %rdx
	leaq	840(%rsp), %r13
	movq	%r13, %r8
	pushq	%rbx
	.cfi_adjust_cfa_offset 8
	pushq	1400(%rsp)
	.cfi_adjust_cfa_offset 8
	pushq	1400(%rsp)
	.cfi_adjust_cfa_offset 8
	pushq	$19
	.cfi_adjust_cfa_offset 8
	pushq	%r15
	.cfi_adjust_cfa_offset 8
	pushq	$19
	.cfi_adjust_cfa_offset 8
	leaq	568(%rsp), %rax
	pushq	%rax
	.cfi_adjust_cfa_offset 8
	pushq	$19
	.cfi_adjust_cfa_offset 8
	leaq	424(%rsp), %rax
	pushq	%rax
	.cfi_adjust_cfa_offset 8
	pushq	$19
	.cfi_adjust_cfa_offset 8
	leaq	120(%rsp), %rax
	pushq	%rax
	.cfi_adjust_cfa_offset 8
	pushq	$19
	.cfi_adjust_cfa_offset 8
	leaq	1256(%rsp), %r15
	pushq	%r15
	.cfi_adjust_cfa_offset 8
	callq	fmonty
	addq	$112, %rsp
	.cfi_adjust_cfa_offset -112
	movl	$19, %esi
	movl	$19, %ecx
	movq	%r12, %rdi
	movq	%r13, %rdx
	movq	%rbp, %r8
	movl	%ebx, %r9d
	callq	swap_conditional
	movl	$19, %esi
	movl	$19, %ecx
	leaq	192(%rsp), %r12
	movq	%r12, %rdi
	movq	%r15, %rdx
	movq	%rbp, %r8
	movl	%ebx, %r9d
	callq	swap_conditional
	leal	(%r14,%r14), %eax
	movzbl	%al, %ebp
	shrq	$7, %rbp
	movl	$19, %esi
	movl	$19, %ecx
	leaq	672(%rsp), %rdi
	movq	%r13, %rdx
	movq	%rbp, %r8
	movl	%ebx, %r9d
	callq	swap_conditional
	movl	$19, %esi
	movl	$19, %ecx
	movq	%r12, %rdi
	movq	%r12, %r13
	movq	%r15, %rdx
	movq	%r15, %r14
	movq	%rbp, %r8
	movl	%ebx, %r9d
	callq	swap_conditional
	subq	$8, %rsp
	.cfi_adjust_cfa_offset 8
	movl	$19, %esi
	movl	$19, %ecx
	movl	$19, %r9d
	leaq	40(%rsp), %r15
	movq	%r15, %rdi
	leaq	360(%rsp), %rdx
	leaq	520(%rsp), %r12
	movq	%r12, %r8
	pushq	%rbx
	.cfi_adjust_cfa_offset 8
	pushq	1400(%rsp)
	.cfi_adjust_cfa_offset 8
	pushq	1400(%rsp)
	.cfi_adjust_cfa_offset 8
	pushq	$19
	.cfi_adjust_cfa_offset 8
	pushq	%r14
	.cfi_adjust_cfa_offset 8
	pushq	$19
	.cfi_adjust_cfa_offset 8
	leaq	888(%rsp), %rax
	pushq	%rax
	.cfi_adjust_cfa_offset 8
	pushq	$19
	.cfi_adjust_cfa_offset 8
	pushq	%r13
	.cfi_adjust_cfa_offset 8
	pushq	$19
	.cfi_adjust_cfa_offset 8
	leaq	760(%rsp), %rax
	pushq	%rax
	.cfi_adjust_cfa_offset 8
	pushq	$19
	.cfi_adjust_cfa_offset 8
	leaq	1096(%rsp), %r13
	pushq	%r13
	.cfi_adjust_cfa_offset 8
	callq	fmonty
	addq	$112, %rsp
	.cfi_adjust_cfa_offset -112
	movl	$19, %esi
	movl	$19, %ecx
	movq	%r15, %rdi
	movq	%r15, %r14
	movq	%r12, %rdx
	movq	%rbp, %r8
	movl	%ebx, %r9d
	callq	swap_conditional
	movl	$19, %esi
	movl	$19, %ecx
	leaq	352(%rsp), %r15
	movq	%r15, %rdi
	movq	%r13, %rdx
	movq	%rbp, %r8
	movl	%ebx, %r9d
	callq	swap_conditional
	movq	(%rsp), %rax            # 8-byte Reload
	shll	$2, %eax
	movzbl	%al, %ebp
	shrq	$7, %rbp
	movl	$19, %esi
	movl	$19, %ecx
	movq	%r14, %rdi
	movq	%r12, %rdx
	movq	%rbp, %r8
	movl	%ebx, %r9d
	callq	swap_conditional
	movl	$19, %esi
	movl	$19, %ecx
	movq	%r15, %rdi
	movq	%r15, %r14
	movq	%r13, %rdx
	movq	%rbp, %r8
	movl	%ebx, %r9d
	callq	swap_conditional
	subq	$8, %rsp
	.cfi_adjust_cfa_offset 8
	movl	$19, %esi
	movl	$19, %ecx
	movl	$19, %r9d
	leaq	680(%rsp), %r15
	movq	%r15, %rdi
	leaq	200(%rsp), %rdx
	leaq	840(%rsp), %r12
	movq	%r12, %r8
	pushq	%rbx
	.cfi_adjust_cfa_offset 8
	movq	1400(%rsp), %rax
	pushq	%rax
	.cfi_adjust_cfa_offset 8
	movq	1400(%rsp), %rax
	pushq	%rax
	.cfi_adjust_cfa_offset 8
	pushq	$19
	.cfi_adjust_cfa_offset 8
	pushq	%r13
	.cfi_adjust_cfa_offset 8
	pushq	$19
	.cfi_adjust_cfa_offset 8
	leaq	568(%rsp), %rax
	pushq	%rax
	.cfi_adjust_cfa_offset 8
	pushq	$19
	.cfi_adjust_cfa_offset 8
	pushq	%r14
	.cfi_adjust_cfa_offset 8
	pushq	$19
	.cfi_adjust_cfa_offset 8
	leaq	120(%rsp), %rax
	pushq	%rax
	.cfi_adjust_cfa_offset 8
	pushq	$19
	.cfi_adjust_cfa_offset 8
	leaq	1256(%rsp), %r14
	pushq	%r14
	.cfi_adjust_cfa_offset 8
	callq	fmonty
	addq	$112, %rsp
	.cfi_adjust_cfa_offset -112
	movl	$19, %esi
	movl	$19, %ecx
	movq	%r15, %rdi
	movq	%r12, %rdx
	movq	%rbp, %r8
	movl	%ebx, %r9d
	callq	swap_conditional
	movl	$19, %esi
	movl	$19, %ecx
	leaq	192(%rsp), %rdi
	movq	%r14, %rdx
	movq	%rbp, %r8
	movl	%ebx, %r9d
	callq	swap_conditional
	movq	8(%rsp), %rax           # 8-byte Reload
	addq	$26, %rax
	cmpq	$26, 16(%rsp)           # 8-byte Folded Reload
	leaq	24(%rsp), %rcx
	cmovgq	%rax, %rcx
	cmpb	$0, 1392(%rsp)
	cmovneq	%rax, %rcx
	movzbl	(%rcx), %ebp
	movq	%rbp, (%rsp)            # 8-byte Spill
	shrq	$7, %rbp
	movl	$19, %esi
	movl	$19, %ecx
	movq	%r15, %rdi
	movq	%r12, %rdx
	movq	%rbp, %r8
	movl	%ebx, %r9d
	callq	swap_conditional
	movl	$19, %esi
	movl	$19, %ecx
	leaq	192(%rsp), %r12
	movq	%r12, %rdi
	movq	%r14, %rdx
	movq	%rbp, %r8
	movl	%ebx, %r9d
	callq	swap_conditional
	subq	$8, %rsp
	.cfi_adjust_cfa_offset 8
	movl	$19, %esi
	movl	$19, %ecx
	movl	$19, %r9d
	leaq	40(%rsp), %r13
	movq	%r13, %rdi
	leaq	360(%rsp), %rdx
	leaq	520(%rsp), %r15
	movq	%r15, %r8
	pushq	%rbx
	.cfi_adjust_cfa_offset 8
	pushq	1400(%rsp)
	.cfi_adjust_cfa_offset 8
	pushq	1400(%rsp)
	.cfi_adjust_cfa_offset 8
	pushq	$19
	.cfi_adjust_cfa_offset 8
	pushq	%r14
	.cfi_adjust_cfa_offset 8
	pushq	$19
	.cfi_adjust_cfa_offset 8
	leaq	888(%rsp), %rax
	pushq	%rax
	.cfi_adjust_cfa_offset 8
	pushq	$19
	.cfi_adjust_cfa_offset 8
	pushq	%r12
	.cfi_adjust_cfa_offset 8
	pushq	$19
	.cfi_adjust_cfa_offset 8
	leaq	760(%rsp), %rax
	pushq	%rax
	.cfi_adjust_cfa_offset 8
	pushq	$19
	.cfi_adjust_cfa_offset 8
	leaq	1096(%rsp), %r12
	pushq	%r12
	.cfi_adjust_cfa_offset 8
	callq	fmonty
	addq	$112, %rsp
	.cfi_adjust_cfa_offset -112
	movl	$19, %esi
	movl	$19, %ecx
	movq	%r13, %rdi
	movq	%r15, %rdx
	movq	%rbp, %r8
	movl	%ebx, %r9d
	callq	swap_conditional
	movl	$19, %esi
	movl	$19, %ecx
	leaq	352(%rsp), %r13
	movq	%r13, %rdi
	movq	%r12, %rdx
	movq	%rbp, %r8
	movl	%ebx, %r9d
	callq	swap_conditional
	movq	(%rsp), %rax            # 8-byte Reload
	addl	%eax, %eax
	movzbl	%al, %r14d
	movq	%r14, (%rsp)            # 8-byte Spill
	movzbl	%al, %ebp
	shrq	$7, %rbp
	movl	$19, %esi
	movl	$19, %ecx
	leaq	32(%rsp), %rdi
	movq	%r15, %rdx
	movq	%rbp, %r8
	movl	%ebx, %r9d
	callq	swap_conditional
	movl	$19, %esi
	movl	$19, %ecx
	movq	%r13, %rdi
	movq	%r12, %rdx
	movq	%r12, %r13
	movq	%rbp, %r8
	movl	%ebx, %r9d
	callq	swap_conditional
	subq	$8, %rsp
	.cfi_adjust_cfa_offset 8
	movl	$19, %esi
	movl	$19, %ecx
	movl	$19, %r9d
	leaq	680(%rsp), %r15
	movq	%r15, %rdi
	leaq	200(%rsp), %rdx
	leaq	840(%rsp), %r12
	movq	%r12, %r8
	pushq	%rbx
	.cfi_adjust_cfa_offset 8
	pushq	1400(%rsp)
	.cfi_adjust_cfa_offset 8
	movq	1400(%rsp), %rax
	pushq	%rax
	.cfi_adjust_cfa_offset 8
	pushq	$19
	.cfi_adjust_cfa_offset 8
	pushq	%r13
	.cfi_adjust_cfa_offset 8
	pushq	$19
	.cfi_adjust_cfa_offset 8
	leaq	568(%rsp), %rax
	pushq	%rax
	.cfi_adjust_cfa_offset 8
	pushq	$19
	.cfi_adjust_cfa_offset 8
	leaq	424(%rsp), %rax
	pushq	%rax
	.cfi_adjust_cfa_offset 8
	pushq	$19
	.cfi_adjust_cfa_offset 8
	leaq	120(%rsp), %rax
	pushq	%rax
	.cfi_adjust_cfa_offset 8
	pushq	$19
	.cfi_adjust_cfa_offset 8
	leaq	1256(%rsp), %r13
	pushq	%r13
	.cfi_adjust_cfa_offset 8
	callq	fmonty
	addq	$112, %rsp
	.cfi_adjust_cfa_offset -112
	movl	$19, %esi
	movl	$19, %ecx
	movq	%r15, %rdi
	movq	%r12, %rdx
	movq	%rbp, %r8
	movl	%ebx, %r9d
	callq	swap_conditional
	movl	$19, %esi
	movl	$19, %ecx
	leaq	192(%rsp), %r15
	movq	%r15, %rdi
	movq	%r13, %rdx
	movq	%rbp, %r8
	movl	%ebx, %r9d
	callq	swap_conditional
	leal	(%r14,%r14), %eax
	movzbl	%al, %ebp
	shrq	$7, %rbp
	movl	$19, %esi
	movl	$19, %ecx
	leaq	672(%rsp), %rdi
	movq	%r12, %rdx
	movq	%rbp, %r8
	movl	%ebx, %r9d
	callq	swap_conditional
	movl	$19, %esi
	movl	$19, %ecx
	movq	%r15, %rdi
	movq	%r13, %rdx
	movq	%r13, %r14
	movq	%rbp, %r8
	movl	%ebx, %r9d
	callq	swap_conditional
	subq	$8, %rsp
	.cfi_adjust_cfa_offset 8
	movl	$19, %esi
	movl	$19, %ecx
	movl	$19, %r9d
	leaq	40(%rsp), %r13
	movq	%r13, %rdi
	leaq	360(%rsp), %rdx
	leaq	520(%rsp), %r12
	movq	%r12, %r8
	pushq	%rbx
	.cfi_adjust_cfa_offset 8
	pushq	1400(%rsp)
	.cfi_adjust_cfa_offset 8
	pushq	1400(%rsp)
	.cfi_adjust_cfa_offset 8
	pushq	$19
	.cfi_adjust_cfa_offset 8
	pushq	%r14
	.cfi_adjust_cfa_offset 8
	pushq	$19
	.cfi_adjust_cfa_offset 8
	leaq	888(%rsp), %rax
	pushq	%rax
	.cfi_adjust_cfa_offset 8
	pushq	$19
	.cfi_adjust_cfa_offset 8
	pushq	%r15
	.cfi_adjust_cfa_offset 8
	pushq	$19
	.cfi_adjust_cfa_offset 8
	leaq	760(%rsp), %rax
	pushq	%rax
	.cfi_adjust_cfa_offset 8
	pushq	$19
	.cfi_adjust_cfa_offset 8
	leaq	1096(%rsp), %r15
	pushq	%r15
	.cfi_adjust_cfa_offset 8
	callq	fmonty
	addq	$112, %rsp
	.cfi_adjust_cfa_offset -112
	movl	$19, %esi
	movl	$19, %ecx
	movq	%r13, %rdi
	movq	%r12, %rdx
	movq	%rbp, %r8
	movl	%ebx, %r9d
	callq	swap_conditional
	movl	$19, %esi
	movl	$19, %ecx
	leaq	352(%rsp), %r14
	movq	%r14, %rdi
	movq	%r15, %rdx
	movq	%rbp, %r8
	movl	%ebx, %r9d
	callq	swap_conditional
	movq	(%rsp), %rcx            # 8-byte Reload
	shll	$2, %ecx
	movzbl	%cl, %eax
	movq	%rax, (%rsp)            # 8-byte Spill
	movzbl	%cl, %ebp
	shrq	$7, %rbp
	movl	$19, %esi
	movl	$19, %ecx
	movq	%r13, %rdi
	movq	%r12, %rdx
	movq	%rbp, %r8
	movl	%ebx, %r9d
	callq	swap_conditional
	movl	$19, %esi
	movl	$19, %ecx
	movq	%r14, %rdi
	movq	%r15, %rdx
	movq	%r15, %r14
	movq	%rbp, %r8
	movl	%ebx, %r9d
	callq	swap_conditional
	subq	$8, %rsp
	.cfi_adjust_cfa_offset 8
	movl	$19, %esi
	movl	$19, %ecx
	movl	$19, %r9d
	leaq	680(%rsp), %r12
	movq	%r12, %rdi
	leaq	200(%rsp), %r13
	movq	%r13, %rdx
	leaq	840(%rsp), %r15
	movq	%r15, %r8
	pushq	%rbx
	.cfi_adjust_cfa_offset 8
	movq	1400(%rsp), %rax
	pushq	%rax
	.cfi_adjust_cfa_offset 8
	movq	1400(%rsp), %rax
	pushq	%rax
	.cfi_adjust_cfa_offset 8
	pushq	$19
	.cfi_adjust_cfa_offset 8
	pushq	%r14
	.cfi_adjust_cfa_offset 8
	pushq	$19
	.cfi_adjust_cfa_offset 8
	leaq	568(%rsp), %rax
	pushq	%rax
	.cfi_adjust_cfa_offset 8
	pushq	$19
	.cfi_adjust_cfa_offset 8
	leaq	424(%rsp), %rax
	pushq	%rax
	.cfi_adjust_cfa_offset 8
	pushq	$19
	.cfi_adjust_cfa_offset 8
	leaq	120(%rsp), %rax
	pushq	%rax
	.cfi_adjust_cfa_offset 8
	pushq	$19
	.cfi_adjust_cfa_offset 8
	leaq	1256(%rsp), %r14
	pushq	%r14
	.cfi_adjust_cfa_offset 8
	callq	fmonty
	addq	$112, %rsp
	.cfi_adjust_cfa_offset -112
	movl	$19, %esi
	movl	$19, %ecx
	movq	%r12, %rdi
	movq	%r15, %rdx
	movq	%rbp, %r8
	movl	%ebx, %r9d
	callq	swap_conditional
	movl	$19, %esi
	movl	$19, %ecx
	movq	%r13, %rdi
	movq	%r14, %rdx
	movq	%rbp, %r8
	movl	%ebx, %r9d
	callq	swap_conditional
	movq	(%rsp), %rax            # 8-byte Reload
	addl	%eax, %eax
	movzbl	%al, %ebp
	shrq	$7, %rbp
	movl	$19, %esi
	movl	$19, %ecx
	movq	%r12, %rdi
	movq	%r15, %rdx
	movq	%rbp, %r8
	movl	%ebx, %r9d
	callq	swap_conditional
	movl	$19, %esi
	movl	$19, %ecx
	movq	%r13, %rdi
	movq	%r13, %r15
	movq	%r14, %rdx
	movq	%r14, %r12
	movq	%rbp, %r8
	movl	%ebx, %r9d
	callq	swap_conditional
	subq	$8, %rsp
	.cfi_adjust_cfa_offset 8
	movl	$19, %esi
	movl	$19, %ecx
	movl	$19, %r9d
	leaq	40(%rsp), %r14
	movq	%r14, %rdi
	leaq	360(%rsp), %rdx
	leaq	520(%rsp), %r13
	movq	%r13, %r8
	pushq	%rbx
	.cfi_adjust_cfa_offset 8
	movq	1400(%rsp), %rax
	pushq	%rax
	.cfi_adjust_cfa_offset 8
	movq	1400(%rsp), %rax
	pushq	%rax
	.cfi_adjust_cfa_offset 8
	pushq	$19
	.cfi_adjust_cfa_offset 8
	pushq	%r12
	.cfi_adjust_cfa_offset 8
	pushq	$19
	.cfi_adjust_cfa_offset 8
	leaq	888(%rsp), %rax
	pushq	%rax
	.cfi_adjust_cfa_offset 8
	pushq	$19
	.cfi_adjust_cfa_offset 8
	pushq	%r15
	.cfi_adjust_cfa_offset 8
	pushq	$19
	.cfi_adjust_cfa_offset 8
	leaq	760(%rsp), %rax
	pushq	%rax
	.cfi_adjust_cfa_offset 8
	pushq	$19
	.cfi_adjust_cfa_offset 8
	leaq	1096(%rsp), %r12
	pushq	%r12
	.cfi_adjust_cfa_offset 8
	callq	fmonty
	addq	$112, %rsp
	.cfi_adjust_cfa_offset -112
	movl	$19, %esi
	movl	$19, %ecx
	movq	%r14, %rdi
	movq	%r13, %rdx
	movq	%r13, %r15
	movq	%rbp, %r8
	movl	%ebx, %r9d
	callq	swap_conditional
	movl	$19, %esi
	movl	$19, %ecx
	leaq	352(%rsp), %r13
	movq	%r13, %rdi
	movq	%r12, %rdx
	movq	%rbp, %r8
	movl	%ebx, %r9d
	callq	swap_conditional
	movq	(%rsp), %rax            # 8-byte Reload
	shll	$2, %eax
	movzbl	%al, %ebp
	movq	%rbp, (%rsp)            # 8-byte Spill
	shrq	$7, %rbp
	movl	$19, %esi
	movl	$19, %ecx
	movq	%r14, %rdi
	movq	%r15, %rdx
	movq	%rbp, %r8
	movl	%ebx, %r9d
	callq	swap_conditional
	movl	$19, %esi
	movl	$19, %ecx
	movq	%r13, %rdi
	movq	%r13, %r15
	movq	%r12, %rdx
	movq	%r12, %r14
	movq	%rbp, %r8
	movl	%ebx, %r9d
	callq	swap_conditional
	subq	$8, %rsp
	.cfi_adjust_cfa_offset 8
	movl	$19, %esi
	movl	$19, %ecx
	movl	$19, %r9d
	leaq	680(%rsp), %r12
	movq	%r12, %rdi
	leaq	200(%rsp), %rdx
	leaq	840(%rsp), %r13
	movq	%r13, %r8
	pushq	%rbx
	.cfi_adjust_cfa_offset 8
	pushq	1400(%rsp)
	.cfi_adjust_cfa_offset 8
	pushq	1400(%rsp)
	.cfi_adjust_cfa_offset 8
	pushq	$19
	.cfi_adjust_cfa_offset 8
	pushq	%r14
	.cfi_adjust_cfa_offset 8
	pushq	$19
	.cfi_adjust_cfa_offset 8
	leaq	568(%rsp), %rax
	pushq	%rax
	.cfi_adjust_cfa_offset 8
	pushq	$19
	.cfi_adjust_cfa_offset 8
	pushq	%r15
	.cfi_adjust_cfa_offset 8
	pushq	$19
	.cfi_adjust_cfa_offset 8
	leaq	120(%rsp), %rax
	pushq	%rax
	.cfi_adjust_cfa_offset 8
	pushq	$19
	.cfi_adjust_cfa_offset 8
	leaq	1256(%rsp), %r15
	pushq	%r15
	.cfi_adjust_cfa_offset 8
	callq	fmonty
	addq	$112, %rsp
	.cfi_adjust_cfa_offset -112
	movl	$19, %esi
	movl	$19, %ecx
	movq	%r12, %rdi
	movq	%r13, %rdx
	movq	%rbp, %r8
	movl	%ebx, %r9d
	callq	swap_conditional
	movl	$19, %esi
	movl	$19, %ecx
	leaq	192(%rsp), %rdi
	movq	%r15, %rdx
	movq	%rbp, %r8
	movl	%ebx, %r9d
	callq	swap_conditional
	movq	(%rsp), %r14            # 8-byte Reload
	leal	(%r14,%r14), %eax
	movzbl	%al, %ebp
	shrq	$7, %rbp
	movl	$19, %esi
	movl	$19, %ecx
	movq	%r12, %rdi
	movq	%r13, %rdx
	movq	%rbp, %r8
	movl	%ebx, %r9d
	callq	swap_conditional
	movl	$19, %esi
	movl	$19, %ecx
	leaq	192(%rsp), %rdi
	movq	%r15, %rdx
	movq	%r15, %r13
	movq	%rbp, %r8
	movl	%ebx, %r9d
	callq	swap_conditional
	subq	$8, %rsp
	.cfi_adjust_cfa_offset 8
	movl	$19, %esi
	movl	$19, %ecx
	movl	$19, %r9d
	leaq	40(%rsp), %r15
	movq	%r15, %rdi
	leaq	360(%rsp), %rdx
	leaq	520(%rsp), %r12
	movq	%r12, %r8
	pushq	%rbx
	.cfi_adjust_cfa_offset 8
	pushq	1400(%rsp)
	.cfi_adjust_cfa_offset 8
	pushq	1400(%rsp)
	.cfi_adjust_cfa_offset 8
	pushq	$19
	.cfi_adjust_cfa_offset 8
	pushq	%r13
	.cfi_adjust_cfa_offset 8
	pushq	$19
	.cfi_adjust_cfa_offset 8
	leaq	888(%rsp), %rax
	pushq	%rax
	.cfi_adjust_cfa_offset 8
	pushq	$19
	.cfi_adjust_cfa_offset 8
	leaq	264(%rsp), %rax
	pushq	%rax
	.cfi_adjust_cfa_offset 8
	pushq	$19
	.cfi_adjust_cfa_offset 8
	leaq	760(%rsp), %rax
	pushq	%rax
	.cfi_adjust_cfa_offset 8
	pushq	$19
	.cfi_adjust_cfa_offset 8
	leaq	1096(%rsp), %r13
	pushq	%r13
	.cfi_adjust_cfa_offset 8
	callq	fmonty
	addq	$112, %rsp
	.cfi_adjust_cfa_offset -112
	movl	$19, %esi
	movl	$19, %ecx
	movq	%r15, %rdi
	movq	%r12, %rdx
	movq	%rbp, %r8
	movl	%ebx, %r9d
	callq	swap_conditional
	movl	$19, %esi
	movl	$19, %ecx
	leaq	352(%rsp), %rdi
	movq	%rdi, %r15
	movq	%r13, %rdx
	movq	%rbp, %r8
	movl	%ebx, %r9d
	callq	swap_conditional
	movq	%r14, %rax
	shll	$2, %eax
	movzbl	%al, %ebp
	shrq	$7, %rbp
	movl	$19, %esi
	movl	$19, %ecx
	leaq	32(%rsp), %rdi
	movq	%r12, %rdx
	movq	%rbp, %r8
	movl	%ebx, %r9d
	callq	swap_conditional
	movl	$19, %esi
	movl	$19, %ecx
	movq	%r15, %rdi
	movq	%r15, %r14
	movq	%r13, %rdx
	movq	%rbp, %r8
	movl	%ebx, %r9d
	callq	swap_conditional
	subq	$8, %rsp
	.cfi_adjust_cfa_offset 8
	movl	$19, %esi
	movl	$19, %ecx
	movl	$19, %r9d
	leaq	680(%rsp), %r15
	movq	%r15, %rdi
	leaq	200(%rsp), %rdx
	leaq	840(%rsp), %r12
	movq	%r12, %r8
	pushq	%rbx
	.cfi_adjust_cfa_offset 8
	pushq	1400(%rsp)
	.cfi_adjust_cfa_offset 8
	movq	1400(%rsp), %rax
	pushq	%rax
	.cfi_adjust_cfa_offset 8
	pushq	$19
	.cfi_adjust_cfa_offset 8
	pushq	%r13
	.cfi_adjust_cfa_offset 8
	pushq	$19
	.cfi_adjust_cfa_offset 8
	leaq	568(%rsp), %rax
	pushq	%rax
	.cfi_adjust_cfa_offset 8
	pushq	$19
	.cfi_adjust_cfa_offset 8
	pushq	%r14
	.cfi_adjust_cfa_offset 8
	pushq	$19
	.cfi_adjust_cfa_offset 8
	leaq	120(%rsp), %rax
	pushq	%rax
	.cfi_adjust_cfa_offset 8
	pushq	$19
	.cfi_adjust_cfa_offset 8
	leaq	1256(%rsp), %r14
	pushq	%r14
	.cfi_adjust_cfa_offset 8
	callq	fmonty
	addq	$112, %rsp
	.cfi_adjust_cfa_offset -112
	movl	$19, %esi
	movl	$19, %ecx
	movq	%r15, %rdi
	movq	%r12, %rdx
	movq	%rbp, %r8
	movl	%ebx, %r9d
	callq	swap_conditional
	movl	$19, %esi
	movl	$19, %ecx
	leaq	192(%rsp), %rdi
	movq	%rdi, %r13
	movq	%r14, %rdx
	movq	%rbp, %r8
	movl	%ebx, %r9d
	callq	swap_conditional
	movq	8(%rsp), %rax           # 8-byte Reload
	addq	$25, %rax
	cmpq	$25, 16(%rsp)           # 8-byte Folded Reload
	leaq	24(%rsp), %rcx
	cmovgq	%rax, %rcx
	cmpb	$0, 1392(%rsp)
	cmovneq	%rax, %rcx
	movzbl	(%rcx), %ebp
	movq	%rbp, (%rsp)            # 8-byte Spill
	shrq	$7, %rbp
	movl	$19, %esi
	movl	$19, %ecx
	movq	%r15, %rdi
	movq	%r12, %rdx
	movq	%rbp, %r8
	movl	%ebx, %r9d
	callq	swap_conditional
	movl	$19, %esi
	movl	$19, %ecx
	movq	%r13, %rdi
	movq	%r14, %rdx
	movq	%r14, %r13
	movq	%rbp, %r8
	movl	%ebx, %r9d
	callq	swap_conditional
	subq	$8, %rsp
	.cfi_adjust_cfa_offset 8
	movl	$19, %esi
	movl	$19, %ecx
	movl	$19, %r9d
	leaq	40(%rsp), %r15
	movq	%r15, %rdi
	leaq	360(%rsp), %r12
	movq	%r12, %rdx
	leaq	520(%rsp), %r14
	movq	%r14, %r8
	pushq	%rbx
	.cfi_adjust_cfa_offset 8
	pushq	1400(%rsp)
	.cfi_adjust_cfa_offset 8
	pushq	1400(%rsp)
	.cfi_adjust_cfa_offset 8
	pushq	$19
	.cfi_adjust_cfa_offset 8
	pushq	%r13
	.cfi_adjust_cfa_offset 8
	pushq	$19
	.cfi_adjust_cfa_offset 8
	leaq	888(%rsp), %rax
	pushq	%rax
	.cfi_adjust_cfa_offset 8
	pushq	$19
	.cfi_adjust_cfa_offset 8
	leaq	264(%rsp), %rax
	pushq	%rax
	.cfi_adjust_cfa_offset 8
	pushq	$19
	.cfi_adjust_cfa_offset 8
	leaq	760(%rsp), %rax
	pushq	%rax
	.cfi_adjust_cfa_offset 8
	pushq	$19
	.cfi_adjust_cfa_offset 8
	leaq	1096(%rsp), %r13
	pushq	%r13
	.cfi_adjust_cfa_offset 8
	callq	fmonty
	addq	$112, %rsp
	.cfi_adjust_cfa_offset -112
	movl	$19, %esi
	movl	$19, %ecx
	movq	%r15, %rdi
	movq	%r14, %rdx
	movq	%rbp, %r8
	movl	%ebx, %r9d
	callq	swap_conditional
	movl	$19, %esi
	movl	$19, %ecx
	movq	%r12, %rdi
	movq	%r13, %rdx
	movq	%rbp, %r8
	movl	%ebx, %r9d
	callq	swap_conditional
	movq	(%rsp), %rax            # 8-byte Reload
	addl	%eax, %eax
	movzbl	%al, %ecx
	movq	%rcx, (%rsp)            # 8-byte Spill
	movzbl	%al, %ebp
	shrq	$7, %rbp
	movl	$19, %esi
	movl	$19, %ecx
	movq	%r15, %rdi
	movq	%r14, %rdx
	movq	%rbp, %r8
	movl	%ebx, %r9d
	callq	swap_conditional
	movl	$19, %esi
	movl	$19, %ecx
	movq	%r12, %rdi
	movq	%r13, %rdx
	movq	%r13, %r12
	movq	%rbp, %r8
	movl	%ebx, %r9d
	callq	swap_conditional
	subq	$8, %rsp
	.cfi_adjust_cfa_offset 8
	movl	$19, %esi
	movl	$19, %ecx
	movl	$19, %r9d
	leaq	680(%rsp), %r15
	movq	%r15, %rdi
	leaq	200(%rsp), %rdx
	leaq	840(%rsp), %r13
	movq	%r13, %r8
	pushq	%rbx
	.cfi_adjust_cfa_offset 8
	movq	1400(%rsp), %rax
	pushq	%rax
	.cfi_adjust_cfa_offset 8
	movq	1400(%rsp), %rax
	pushq	%rax
	.cfi_adjust_cfa_offset 8
	pushq	$19
	.cfi_adjust_cfa_offset 8
	pushq	%r12
	.cfi_adjust_cfa_offset 8
	pushq	$19
	.cfi_adjust_cfa_offset 8
	pushq	%r14
	.cfi_adjust_cfa_offset 8
	pushq	$19
	.cfi_adjust_cfa_offset 8
	leaq	424(%rsp), %rax
	pushq	%rax
	.cfi_adjust_cfa_offset 8
	pushq	$19
	.cfi_adjust_cfa_offset 8
	leaq	120(%rsp), %rax
	pushq	%rax
	.cfi_adjust_cfa_offset 8
	pushq	$19
	.cfi_adjust_cfa_offset 8
	leaq	1256(%rsp), %r12
	pushq	%r12
	.cfi_adjust_cfa_offset 8
	callq	fmonty
	addq	$112, %rsp
	.cfi_adjust_cfa_offset -112
	movl	$19, %esi
	movl	$19, %ecx
	movq	%r15, %rdi
	movq	%r13, %rdx
	movq	%rbp, %r8
	movl	%ebx, %r9d
	callq	swap_conditional
	movl	$19, %esi
	movl	$19, %ecx
	leaq	192(%rsp), %rdi
	movq	%rdi, %r14
	movq	%r12, %rdx
	movq	%rbp, %r8
	movl	%ebx, %r9d
	callq	swap_conditional
	movq	(%rsp), %rax            # 8-byte Reload
	addl	%eax, %eax
	movzbl	%al, %ebp
	shrq	$7, %rbp
	movl	$19, %esi
	movl	$19, %ecx
	movq	%r15, %rdi
	movq	%r13, %rdx
	movq	%rbp, %r8
	movl	%ebx, %r9d
	callq	swap_conditional
	movl	$19, %esi
	movl	$19, %ecx
	movq	%r14, %rdi
	movq	%r14, %r15
	movq	%r12, %rdx
	movq	%r12, %r14
	movq	%rbp, %r8
	movl	%ebx, %r9d
	callq	swap_conditional
	subq	$8, %rsp
	.cfi_adjust_cfa_offset 8
	movl	$19, %esi
	movl	$19, %ecx
	movl	$19, %r9d
	leaq	40(%rsp), %r13
	movq	%r13, %rdi
	leaq	360(%rsp), %rdx
	leaq	520(%rsp), %r12
	movq	%r12, %r8
	pushq	%rbx
	.cfi_adjust_cfa_offset 8
	pushq	1400(%rsp)
	.cfi_adjust_cfa_offset 8
	pushq	1400(%rsp)
	.cfi_adjust_cfa_offset 8
	pushq	$19
	.cfi_adjust_cfa_offset 8
	pushq	%r14
	.cfi_adjust_cfa_offset 8
	pushq	$19
	.cfi_adjust_cfa_offset 8
	leaq	888(%rsp), %rax
	pushq	%rax
	.cfi_adjust_cfa_offset 8
	pushq	$19
	.cfi_adjust_cfa_offset 8
	pushq	%r15
	.cfi_adjust_cfa_offset 8
	pushq	$19
	.cfi_adjust_cfa_offset 8
	leaq	760(%rsp), %rax
	pushq	%rax
	.cfi_adjust_cfa_offset 8
	pushq	$19
	.cfi_adjust_cfa_offset 8
	leaq	1096(%rsp), %r15
	pushq	%r15
	.cfi_adjust_cfa_offset 8
	callq	fmonty
	addq	$112, %rsp
	.cfi_adjust_cfa_offset -112
	movl	$19, %esi
	movl	$19, %ecx
	movq	%r13, %rdi
	movq	%r12, %rdx
	movq	%rbp, %r8
	movl	%ebx, %r9d
	callq	swap_conditional
	movl	$19, %esi
	movl	$19, %ecx
	leaq	352(%rsp), %rdi
	movq	%rdi, %r14
	movq	%r15, %rdx
	movq	%rbp, %r8
	movl	%ebx, %r9d
	callq	swap_conditional
	movq	(%rsp), %rcx            # 8-byte Reload
	shll	$2, %ecx
	movzbl	%cl, %eax
	movq	%rax, (%rsp)            # 8-byte Spill
	movzbl	%cl, %ebp
	shrq	$7, %rbp
	movl	$19, %esi
	movl	$19, %ecx
	movq	%r13, %rdi
	movq	%r12, %rdx
	movq	%rbp, %r8
	movl	%ebx, %r9d
	callq	swap_conditional
	movl	$19, %esi
	movl	$19, %ecx
	movq	%r14, %rdi
	movq	%r15, %rdx
	movq	%rbp, %r8
	movl	%ebx, %r9d
	callq	swap_conditional
	subq	$8, %rsp
	.cfi_adjust_cfa_offset 8
	movl	$19, %esi
	movl	$19, %ecx
	movl	$19, %r9d
	leaq	680(%rsp), %r12
	movq	%r12, %rdi
	leaq	200(%rsp), %rdx
	leaq	840(%rsp), %r13
	movq	%r13, %r8
	pushq	%rbx
	.cfi_adjust_cfa_offset 8
	pushq	1400(%rsp)
	.cfi_adjust_cfa_offset 8
	pushq	1400(%rsp)
	.cfi_adjust_cfa_offset 8
	pushq	$19
	.cfi_adjust_cfa_offset 8
	pushq	%r15
	.cfi_adjust_cfa_offset 8
	pushq	$19
	.cfi_adjust_cfa_offset 8
	leaq	568(%rsp), %rax
	pushq	%rax
	.cfi_adjust_cfa_offset 8
	pushq	$19
	.cfi_adjust_cfa_offset 8
	pushq	%r14
	.cfi_adjust_cfa_offset 8
	pushq	$19
	.cfi_adjust_cfa_offset 8
	leaq	120(%rsp), %rax
	pushq	%rax
	.cfi_adjust_cfa_offset 8
	pushq	$19
	.cfi_adjust_cfa_offset 8
	leaq	1256(%rsp), %r14
	pushq	%r14
	.cfi_adjust_cfa_offset 8
	callq	fmonty
	addq	$112, %rsp
	.cfi_adjust_cfa_offset -112
	movl	$19, %esi
	movl	$19, %ecx
	movq	%r12, %rdi
	movq	%r13, %rdx
	movq	%rbp, %r8
	movl	%ebx, %r9d
	callq	swap_conditional
	movl	$19, %esi
	movl	$19, %ecx
	leaq	192(%rsp), %rdi
	movq	%rdi, %r15
	movq	%r14, %rdx
	movq	%rbp, %r8
	movl	%ebx, %r9d
	callq	swap_conditional
	movq	(%rsp), %rax            # 8-byte Reload
	addl	%eax, %eax
	movzbl	%al, %ebp
	shrq	$7, %rbp
	movl	$19, %esi
	movl	$19, %ecx
	movq	%r12, %rdi
	movq	%r13, %rdx
	movq	%rbp, %r8
	movl	%ebx, %r9d
	callq	swap_conditional
	movl	$19, %esi
	movl	$19, %ecx
	movq	%r15, %rdi
	movq	%r14, %rdx
	movq	%r14, %r13
	movq	%rbp, %r8
	movl	%ebx, %r9d
	callq	swap_conditional
	subq	$8, %rsp
	.cfi_adjust_cfa_offset 8
	movl	$19, %esi
	movl	$19, %ecx
	movl	$19, %r9d
	leaq	40(%rsp), %r15
	movq	%r15, %rdi
	leaq	360(%rsp), %r14
	movq	%r14, %rdx
	leaq	520(%rsp), %r12
	movq	%r12, %r8
	pushq	%rbx
	.cfi_adjust_cfa_offset 8
	movq	1400(%rsp), %rax
	pushq	%rax
	.cfi_adjust_cfa_offset 8
	movq	1400(%rsp), %rax
	pushq	%rax
	.cfi_adjust_cfa_offset 8
	pushq	$19
	.cfi_adjust_cfa_offset 8
	pushq	%r13
	.cfi_adjust_cfa_offset 8
	pushq	$19
	.cfi_adjust_cfa_offset 8
	leaq	888(%rsp), %rax
	pushq	%rax
	.cfi_adjust_cfa_offset 8
	pushq	$19
	.cfi_adjust_cfa_offset 8
	leaq	264(%rsp), %rax
	pushq	%rax
	.cfi_adjust_cfa_offset 8
	pushq	$19
	.cfi_adjust_cfa_offset 8
	leaq	760(%rsp), %rax
	pushq	%rax
	.cfi_adjust_cfa_offset 8
	pushq	$19
	.cfi_adjust_cfa_offset 8
	leaq	1096(%rsp), %r13
	pushq	%r13
	.cfi_adjust_cfa_offset 8
	callq	fmonty
	addq	$112, %rsp
	.cfi_adjust_cfa_offset -112
	movl	$19, %esi
	movl	$19, %ecx
	movq	%r15, %rdi
	movq	%r12, %rdx
	movq	%rbp, %r8
	movl	%ebx, %r9d
	callq	swap_conditional
	movl	$19, %esi
	movl	$19, %ecx
	movq	%r14, %rdi
	movq	%r13, %rdx
	movq	%rbp, %r8
	movl	%ebx, %r9d
	callq	swap_conditional
	movq	(%rsp), %rax            # 8-byte Reload
	shll	$2, %eax
	movzbl	%al, %eax
	movq	%rax, %rbp
	movq	%rax, %r14
	movq	%rax, (%rsp)            # 8-byte Spill
	shrq	$7, %rbp
	movl	$19, %esi
	movl	$19, %ecx
	movq	%r15, %rdi
	movq	%r12, %rdx
	movq	%rbp, %r8
	movl	%ebx, %r9d
	callq	swap_conditional
	movl	$19, %esi
	movl	$19, %ecx
	leaq	352(%rsp), %rdi
	movq	%r13, %rdx
	movq	%r13, %r15
	movq	%rbp, %r8
	movl	%ebx, %r9d
	callq	swap_conditional
	subq	$8, %rsp
	.cfi_adjust_cfa_offset 8
	movl	$19, %esi
	movl	$19, %ecx
	movl	$19, %r9d
	leaq	680(%rsp), %r13
	movq	%r13, %rdi
	leaq	200(%rsp), %rdx
	leaq	840(%rsp), %r12
	movq	%r12, %r8
	pushq	%rbx
	.cfi_adjust_cfa_offset 8
	pushq	1400(%rsp)
	.cfi_adjust_cfa_offset 8
	pushq	1400(%rsp)
	.cfi_adjust_cfa_offset 8
	pushq	$19
	.cfi_adjust_cfa_offset 8
	pushq	%r15
	.cfi_adjust_cfa_offset 8
	pushq	$19
	.cfi_adjust_cfa_offset 8
	leaq	568(%rsp), %rax
	pushq	%rax
	.cfi_adjust_cfa_offset 8
	pushq	$19
	.cfi_adjust_cfa_offset 8
	leaq	424(%rsp), %rax
	pushq	%rax
	.cfi_adjust_cfa_offset 8
	pushq	$19
	.cfi_adjust_cfa_offset 8
	leaq	120(%rsp), %rax
	pushq	%rax
	.cfi_adjust_cfa_offset 8
	pushq	$19
	.cfi_adjust_cfa_offset 8
	leaq	1256(%rsp), %r15
	pushq	%r15
	.cfi_adjust_cfa_offset 8
	callq	fmonty
	addq	$112, %rsp
	.cfi_adjust_cfa_offset -112
	movl	$19, %esi
	movl	$19, %ecx
	movq	%r13, %rdi
	movq	%r12, %rdx
	movq	%rbp, %r8
	movl	%ebx, %r9d
	callq	swap_conditional
	movl	$19, %esi
	movl	$19, %ecx
	leaq	192(%rsp), %r13
	movq	%r13, %rdi
	movq	%r15, %rdx
	movq	%rbp, %r8
	movl	%ebx, %r9d
	callq	swap_conditional
	leal	(%r14,%r14), %eax
	movzbl	%al, %ebp
	shrq	$7, %rbp
	movl	$19, %esi
	movl	$19, %ecx
	leaq	672(%rsp), %rdi
	movq	%r12, %rdx
	movq	%rbp, %r8
	movl	%ebx, %r9d
	callq	swap_conditional
	movl	$19, %esi
	movl	$19, %ecx
	movq	%r13, %rdi
	movq	%r13, %r12
	movq	%r15, %rdx
	movq	%r15, %r14
	movq	%rbp, %r8
	movl	%ebx, %r9d
	callq	swap_conditional
	subq	$8, %rsp
	.cfi_adjust_cfa_offset 8
	movl	$19, %esi
	movl	$19, %ecx
	movl	$19, %r9d
	leaq	40(%rsp), %r15
	movq	%r15, %rdi
	leaq	360(%rsp), %rdx
	leaq	520(%rsp), %r13
	movq	%r13, %r8
	pushq	%rbx
	.cfi_adjust_cfa_offset 8
	pushq	1400(%rsp)
	.cfi_adjust_cfa_offset 8
	pushq	1400(%rsp)
	.cfi_adjust_cfa_offset 8
	pushq	$19
	.cfi_adjust_cfa_offset 8
	pushq	%r14
	.cfi_adjust_cfa_offset 8
	pushq	$19
	.cfi_adjust_cfa_offset 8
	leaq	888(%rsp), %rax
	pushq	%rax
	.cfi_adjust_cfa_offset 8
	pushq	$19
	.cfi_adjust_cfa_offset 8
	pushq	%r12
	.cfi_adjust_cfa_offset 8
	pushq	$19
	.cfi_adjust_cfa_offset 8
	leaq	760(%rsp), %rax
	pushq	%rax
	.cfi_adjust_cfa_offset 8
	pushq	$19
	.cfi_adjust_cfa_offset 8
	leaq	1096(%rsp), %r12
	pushq	%r12
	.cfi_adjust_cfa_offset 8
	callq	fmonty
	addq	$112, %rsp
	.cfi_adjust_cfa_offset -112
	movl	$19, %esi
	movl	$19, %ecx
	movq	%r15, %rdi
	movq	%r15, %r14
	movq	%r13, %rdx
	movq	%rbp, %r8
	movl	%ebx, %r9d
	callq	swap_conditional
	movl	$19, %esi
	movl	$19, %ecx
	leaq	352(%rsp), %r15
	movq	%r15, %rdi
	movq	%r12, %rdx
	movq	%rbp, %r8
	movl	%ebx, %r9d
	callq	swap_conditional
	movq	(%rsp), %rax            # 8-byte Reload
	shll	$2, %eax
	movzbl	%al, %ebp
	shrq	$7, %rbp
	movl	$19, %esi
	movl	$19, %ecx
	movq	%r14, %rdi
	movq	%r13, %rdx
	movq	%rbp, %r8
	movl	%ebx, %r9d
	callq	swap_conditional
	movl	$19, %esi
	movl	$19, %ecx
	movq	%r15, %rdi
	movq	%r15, %r14
	movq	%r12, %rdx
	movq	%rbp, %r8
	movl	%ebx, %r9d
	callq	swap_conditional
	subq	$8, %rsp
	.cfi_adjust_cfa_offset 8
	movl	$19, %esi
	movl	$19, %ecx
	movl	$19, %r9d
	leaq	680(%rsp), %r15
	movq	%r15, %rdi
	leaq	200(%rsp), %rdx
	leaq	840(%rsp), %r13
	movq	%r13, %r8
	pushq	%rbx
	.cfi_adjust_cfa_offset 8
	movq	1400(%rsp), %rax
	pushq	%rax
	.cfi_adjust_cfa_offset 8
	movq	1400(%rsp), %rax
	pushq	%rax
	.cfi_adjust_cfa_offset 8
	pushq	$19
	.cfi_adjust_cfa_offset 8
	pushq	%r12
	.cfi_adjust_cfa_offset 8
	pushq	$19
	.cfi_adjust_cfa_offset 8
	leaq	568(%rsp), %rax
	pushq	%rax
	.cfi_adjust_cfa_offset 8
	pushq	$19
	.cfi_adjust_cfa_offset 8
	pushq	%r14
	.cfi_adjust_cfa_offset 8
	pushq	$19
	.cfi_adjust_cfa_offset 8
	leaq	120(%rsp), %rax
	pushq	%rax
	.cfi_adjust_cfa_offset 8
	pushq	$19
	.cfi_adjust_cfa_offset 8
	leaq	1256(%rsp), %r14
	pushq	%r14
	.cfi_adjust_cfa_offset 8
	callq	fmonty
	addq	$112, %rsp
	.cfi_adjust_cfa_offset -112
	movl	$19, %esi
	movl	$19, %ecx
	movq	%r15, %rdi
	movq	%r13, %rdx
	movq	%rbp, %r8
	movl	%ebx, %r9d
	callq	swap_conditional
	movl	$19, %esi
	movl	$19, %ecx
	leaq	192(%rsp), %rdi
	movq	%r14, %rdx
	movq	%rbp, %r8
	movl	%ebx, %r9d
	callq	swap_conditional
	movq	8(%rsp), %rax           # 8-byte Reload
	addq	$24, %rax
	cmpq	$24, 16(%rsp)           # 8-byte Folded Reload
	leaq	24(%rsp), %rcx
	cmovgq	%rax, %rcx
	cmpb	$0, 1392(%rsp)
	cmovneq	%rax, %rcx
	movzbl	(%rcx), %ebp
	movq	%rbp, (%rsp)            # 8-byte Spill
	shrq	$7, %rbp
	movl	$19, %esi
	movl	$19, %ecx
	movq	%r15, %rdi
	movq	%r13, %rdx
	movq	%rbp, %r8
	movl	%ebx, %r9d
	callq	swap_conditional
	movl	$19, %esi
	movl	$19, %ecx
	leaq	192(%rsp), %r13
	movq	%r13, %rdi
	movq	%r14, %rdx
	movq	%rbp, %r8
	movl	%ebx, %r9d
	callq	swap_conditional
	subq	$8, %rsp
	.cfi_adjust_cfa_offset 8
	movl	$19, %esi
	movl	$19, %ecx
	movl	$19, %r9d
	leaq	40(%rsp), %r12
	movq	%r12, %rdi
	leaq	360(%rsp), %rdx
	leaq	520(%rsp), %r15
	movq	%r15, %r8
	pushq	%rbx
	.cfi_adjust_cfa_offset 8
	pushq	1400(%rsp)
	.cfi_adjust_cfa_offset 8
	pushq	1400(%rsp)
	.cfi_adjust_cfa_offset 8
	pushq	$19
	.cfi_adjust_cfa_offset 8
	pushq	%r14
	.cfi_adjust_cfa_offset 8
	pushq	$19
	.cfi_adjust_cfa_offset 8
	leaq	888(%rsp), %rax
	pushq	%rax
	.cfi_adjust_cfa_offset 8
	pushq	$19
	.cfi_adjust_cfa_offset 8
	pushq	%r13
	.cfi_adjust_cfa_offset 8
	pushq	$19
	.cfi_adjust_cfa_offset 8
	leaq	760(%rsp), %rax
	pushq	%rax
	.cfi_adjust_cfa_offset 8
	pushq	$19
	.cfi_adjust_cfa_offset 8
	leaq	1096(%rsp), %r13
	pushq	%r13
	.cfi_adjust_cfa_offset 8
	callq	fmonty
	addq	$112, %rsp
	.cfi_adjust_cfa_offset -112
	movl	$19, %esi
	movl	$19, %ecx
	movq	%r12, %rdi
	movq	%r15, %rdx
	movq	%rbp, %r8
	movl	%ebx, %r9d
	callq	swap_conditional
	movl	$19, %esi
	movl	$19, %ecx
	leaq	352(%rsp), %r12
	movq	%r12, %rdi
	movq	%r13, %rdx
	movq	%rbp, %r8
	movl	%ebx, %r9d
	callq	swap_conditional
	movq	(%rsp), %rax            # 8-byte Reload
	addl	%eax, %eax
	movzbl	%al, %r14d
	movq	%r14, (%rsp)            # 8-byte Spill
	movzbl	%al, %ebp
	shrq	$7, %rbp
	movl	$19, %esi
	movl	$19, %ecx
	leaq	32(%rsp), %rdi
	movq	%r15, %rdx
	movq	%rbp, %r8
	movl	%ebx, %r9d
	callq	swap_conditional
	movl	$19, %esi
	movl	$19, %ecx
	movq	%r12, %rdi
	movq	%r13, %rdx
	movq	%r13, %r12
	movq	%rbp, %r8
	movl	%ebx, %r9d
	callq	swap_conditional
	subq	$8, %rsp
	.cfi_adjust_cfa_offset 8
	movl	$19, %esi
	movl	$19, %ecx
	movl	$19, %r9d
	leaq	680(%rsp), %r15
	movq	%r15, %rdi
	leaq	200(%rsp), %rdx
	leaq	840(%rsp), %r13
	movq	%r13, %r8
	pushq	%rbx
	.cfi_adjust_cfa_offset 8
	movq	1400(%rsp), %rax
	pushq	%rax
	.cfi_adjust_cfa_offset 8
	movq	1400(%rsp), %rax
	pushq	%rax
	.cfi_adjust_cfa_offset 8
	pushq	$19
	.cfi_adjust_cfa_offset 8
	pushq	%r12
	.cfi_adjust_cfa_offset 8
	pushq	$19
	.cfi_adjust_cfa_offset 8
	leaq	568(%rsp), %rax
	pushq	%rax
	.cfi_adjust_cfa_offset 8
	pushq	$19
	.cfi_adjust_cfa_offset 8
	leaq	424(%rsp), %rax
	pushq	%rax
	.cfi_adjust_cfa_offset 8
	pushq	$19
	.cfi_adjust_cfa_offset 8
	leaq	120(%rsp), %rax
	pushq	%rax
	.cfi_adjust_cfa_offset 8
	pushq	$19
	.cfi_adjust_cfa_offset 8
	leaq	1256(%rsp), %r12
	pushq	%r12
	.cfi_adjust_cfa_offset 8
	callq	fmonty
	addq	$112, %rsp
	.cfi_adjust_cfa_offset -112
	movl	$19, %esi
	movl	$19, %ecx
	movq	%r15, %rdi
	movq	%r13, %rdx
	movq	%rbp, %r8
	movl	%ebx, %r9d
	callq	swap_conditional
	movl	$19, %esi
	movl	$19, %ecx
	leaq	192(%rsp), %r15
	movq	%r15, %rdi
	movq	%r12, %rdx
	movq	%rbp, %r8
	movl	%ebx, %r9d
	callq	swap_conditional
	leal	(%r14,%r14), %eax
	movzbl	%al, %ebp
	shrq	$7, %rbp
	movl	$19, %esi
	movl	$19, %ecx
	leaq	672(%rsp), %rdi
	movq	%r13, %rdx
	movq	%rbp, %r8
	movl	%ebx, %r9d
	callq	swap_conditional
	movl	$19, %esi
	movl	$19, %ecx
	movq	%r15, %rdi
	movq	%r12, %rdx
	movq	%r12, %r14
	movq	%rbp, %r8
	movl	%ebx, %r9d
	callq	swap_conditional
	subq	$8, %rsp
	.cfi_adjust_cfa_offset 8
	movl	$19, %esi
	movl	$19, %ecx
	movl	$19, %r9d
	leaq	40(%rsp), %r12
	movq	%r12, %rdi
	leaq	360(%rsp), %rdx
	leaq	520(%rsp), %r13
	movq	%r13, %r8
	pushq	%rbx
	.cfi_adjust_cfa_offset 8
	pushq	1400(%rsp)
	.cfi_adjust_cfa_offset 8
	pushq	1400(%rsp)
	.cfi_adjust_cfa_offset 8
	pushq	$19
	.cfi_adjust_cfa_offset 8
	pushq	%r14
	.cfi_adjust_cfa_offset 8
	pushq	$19
	.cfi_adjust_cfa_offset 8
	leaq	888(%rsp), %rax
	pushq	%rax
	.cfi_adjust_cfa_offset 8
	pushq	$19
	.cfi_adjust_cfa_offset 8
	pushq	%r15
	.cfi_adjust_cfa_offset 8
	pushq	$19
	.cfi_adjust_cfa_offset 8
	leaq	760(%rsp), %rax
	pushq	%rax
	.cfi_adjust_cfa_offset 8
	pushq	$19
	.cfi_adjust_cfa_offset 8
	leaq	1096(%rsp), %r15
	pushq	%r15
	.cfi_adjust_cfa_offset 8
	callq	fmonty
	addq	$112, %rsp
	.cfi_adjust_cfa_offset -112
	movl	$19, %esi
	movl	$19, %ecx
	movq	%r12, %rdi
	movq	%r13, %rdx
	movq	%rbp, %r8
	movl	%ebx, %r9d
	callq	swap_conditional
	movl	$19, %esi
	movl	$19, %ecx
	leaq	352(%rsp), %r14
	movq	%r14, %rdi
	movq	%r15, %rdx
	movq	%rbp, %r8
	movl	%ebx, %r9d
	callq	swap_conditional
	movq	(%rsp), %rcx            # 8-byte Reload
	shll	$2, %ecx
	movzbl	%cl, %eax
	movq	%rax, (%rsp)            # 8-byte Spill
	movzbl	%cl, %ebp
	shrq	$7, %rbp
	movl	$19, %esi
	movl	$19, %ecx
	movq	%r12, %rdi
	movq	%r13, %rdx
	movq	%rbp, %r8
	movl	%ebx, %r9d
	callq	swap_conditional
	movl	$19, %esi
	movl	$19, %ecx
	movq	%r14, %rdi
	movq	%r15, %rdx
	movq	%r15, %r14
	movq	%rbp, %r8
	movl	%ebx, %r9d
	callq	swap_conditional
	subq	$8, %rsp
	.cfi_adjust_cfa_offset 8
	movl	$19, %esi
	movl	$19, %ecx
	movl	$19, %r9d
	leaq	680(%rsp), %r13
	movq	%r13, %rdi
	leaq	200(%rsp), %r12
	movq	%r12, %rdx
	leaq	840(%rsp), %r15
	movq	%r15, %r8
	pushq	%rbx
	.cfi_adjust_cfa_offset 8
	movq	1400(%rsp), %rax
	pushq	%rax
	.cfi_adjust_cfa_offset 8
	movq	1400(%rsp), %rax
	pushq	%rax
	.cfi_adjust_cfa_offset 8
	pushq	$19
	.cfi_adjust_cfa_offset 8
	pushq	%r14
	.cfi_adjust_cfa_offset 8
	pushq	$19
	.cfi_adjust_cfa_offset 8
	leaq	568(%rsp), %rax
	pushq	%rax
	.cfi_adjust_cfa_offset 8
	pushq	$19
	.cfi_adjust_cfa_offset 8
	leaq	424(%rsp), %rax
	pushq	%rax
	.cfi_adjust_cfa_offset 8
	pushq	$19
	.cfi_adjust_cfa_offset 8
	leaq	120(%rsp), %rax
	pushq	%rax
	.cfi_adjust_cfa_offset 8
	pushq	$19
	.cfi_adjust_cfa_offset 8
	leaq	1256(%rsp), %r14
	pushq	%r14
	.cfi_adjust_cfa_offset 8
	callq	fmonty
	addq	$112, %rsp
	.cfi_adjust_cfa_offset -112
	movl	$19, %esi
	movl	$19, %ecx
	movq	%r13, %rdi
	movq	%r15, %rdx
	movq	%rbp, %r8
	movl	%ebx, %r9d
	callq	swap_conditional
	movl	$19, %esi
	movl	$19, %ecx
	movq	%r12, %rdi
	movq	%r14, %rdx
	movq	%rbp, %r8
	movl	%ebx, %r9d
	callq	swap_conditional
	movq	(%rsp), %rax            # 8-byte Reload
	addl	%eax, %eax
	movzbl	%al, %ebp
	shrq	$7, %rbp
	movl	$19, %esi
	movl	$19, %ecx
	movq	%r13, %rdi
	movq	%r15, %rdx
	movq	%rbp, %r8
	movl	%ebx, %r9d
	callq	swap_conditional
	movl	$19, %esi
	movl	$19, %ecx
	movq	%r12, %rdi
	movq	%r12, %r15
	movq	%r14, %rdx
	movq	%r14, %r13
	movq	%rbp, %r8
	movl	%ebx, %r9d
	callq	swap_conditional
	subq	$8, %rsp
	.cfi_adjust_cfa_offset 8
	movl	$19, %esi
	movl	$19, %ecx
	movl	$19, %r9d
	leaq	40(%rsp), %r12
	movq	%r12, %rdi
	leaq	360(%rsp), %rdx
	leaq	520(%rsp), %r14
	movq	%r14, %r8
	pushq	%rbx
	.cfi_adjust_cfa_offset 8
	movq	1400(%rsp), %rax
	pushq	%rax
	.cfi_adjust_cfa_offset 8
	movq	1400(%rsp), %rax
	pushq	%rax
	.cfi_adjust_cfa_offset 8
	pushq	$19
	.cfi_adjust_cfa_offset 8
	pushq	%r13
	.cfi_adjust_cfa_offset 8
	pushq	$19
	.cfi_adjust_cfa_offset 8
	leaq	888(%rsp), %rax
	pushq	%rax
	.cfi_adjust_cfa_offset 8
	pushq	$19
	.cfi_adjust_cfa_offset 8
	pushq	%r15
	.cfi_adjust_cfa_offset 8
	pushq	$19
	.cfi_adjust_cfa_offset 8
	leaq	760(%rsp), %rax
	pushq	%rax
	.cfi_adjust_cfa_offset 8
	pushq	$19
	.cfi_adjust_cfa_offset 8
	leaq	1096(%rsp), %r15
	pushq	%r15
	.cfi_adjust_cfa_offset 8
	callq	fmonty
	addq	$112, %rsp
	.cfi_adjust_cfa_offset -112
	movl	$19, %esi
	movl	$19, %ecx
	movq	%r12, %rdi
	movq	%r14, %rdx
	movq	%rbp, %r8
	movl	%ebx, %r9d
	callq	swap_conditional
	movl	$19, %esi
	movl	$19, %ecx
	leaq	352(%rsp), %r13
	movq	%r13, %rdi
	movq	%r15, %rdx
	movq	%rbp, %r8
	movl	%ebx, %r9d
	callq	swap_conditional
	movq	(%rsp), %rax            # 8-byte Reload
	shll	$2, %eax
	movzbl	%al, %ebp
	movq	%rbp, (%rsp)            # 8-byte Spill
	shrq	$7, %rbp
	movl	$19, %esi
	movl	$19, %ecx
	movq	%r12, %rdi
	movq	%r14, %rdx
	movq	%rbp, %r8
	movl	%ebx, %r9d
	callq	swap_conditional
	movl	$19, %esi
	movl	$19, %ecx
	movq	%r13, %rdi
	movq	%r13, %r12
	movq	%r15, %rdx
	movq	%r15, %r14
	movq	%rbp, %r8
	movl	%ebx, %r9d
	callq	swap_conditional
	subq	$8, %rsp
	.cfi_adjust_cfa_offset 8
	movl	$19, %esi
	movl	$19, %ecx
	movl	$19, %r9d
	leaq	680(%rsp), %r13
	movq	%r13, %rdi
	leaq	200(%rsp), %rdx
	leaq	840(%rsp), %r15
	movq	%r15, %r8
	pushq	%rbx
	.cfi_adjust_cfa_offset 8
	pushq	1400(%rsp)
	.cfi_adjust_cfa_offset 8
	pushq	1400(%rsp)
	.cfi_adjust_cfa_offset 8
	pushq	$19
	.cfi_adjust_cfa_offset 8
	pushq	%r14
	.cfi_adjust_cfa_offset 8
	pushq	$19
	.cfi_adjust_cfa_offset 8
	leaq	568(%rsp), %rax
	pushq	%rax
	.cfi_adjust_cfa_offset 8
	pushq	$19
	.cfi_adjust_cfa_offset 8
	pushq	%r12
	.cfi_adjust_cfa_offset 8
	pushq	$19
	.cfi_adjust_cfa_offset 8
	leaq	120(%rsp), %rax
	pushq	%rax
	.cfi_adjust_cfa_offset 8
	pushq	$19
	.cfi_adjust_cfa_offset 8
	leaq	1256(%rsp), %r12
	pushq	%r12
	.cfi_adjust_cfa_offset 8
	callq	fmonty
	addq	$112, %rsp
	.cfi_adjust_cfa_offset -112
	movl	$19, %esi
	movl	$19, %ecx
	movq	%r13, %rdi
	movq	%r15, %rdx
	movq	%r15, %r14
	movq	%rbp, %r8
	movl	%ebx, %r9d
	callq	swap_conditional
	movl	$19, %esi
	movl	$19, %ecx
	leaq	192(%rsp), %rdi
	movq	%rdi, %r15
	movq	%r12, %rdx
	movq	%rbp, %r8
	movl	%ebx, %r9d
	callq	swap_conditional
	movq	(%rsp), %rax            # 8-byte Reload
	addl	%eax, %eax
	movzbl	%al, %ebp
	shrq	$7, %rbp
	movl	$19, %esi
	movl	$19, %ecx
	movq	%r13, %rdi
	movq	%r14, %rdx
	movq	%rbp, %r8
	movl	%ebx, %r9d
	callq	swap_conditional
	movl	$19, %esi
	movl	$19, %ecx
	movq	%r15, %rdi
	movq	%r12, %rdx
	movq	%r12, %r14
	movq	%rbp, %r8
	movl	%ebx, %r9d
	callq	swap_conditional
	subq	$8, %rsp
	.cfi_adjust_cfa_offset 8
	movl	$19, %esi
	movl	$19, %ecx
	movl	$19, %r9d
	leaq	40(%rsp), %r13
	movq	%r13, %rdi
	leaq	360(%rsp), %rdx
	leaq	520(%rsp), %r12
	movq	%r12, %r8
	pushq	%rbx
	.cfi_adjust_cfa_offset 8
	movq	1400(%rsp), %rax
	pushq	%rax
	.cfi_adjust_cfa_offset 8
	movq	1400(%rsp), %rax
	pushq	%rax
	.cfi_adjust_cfa_offset 8
	pushq	$19
	.cfi_adjust_cfa_offset 8
	pushq	%r14
	.cfi_adjust_cfa_offset 8
	pushq	$19
	.cfi_adjust_cfa_offset 8
	leaq	888(%rsp), %rax
	pushq	%rax
	.cfi_adjust_cfa_offset 8
	pushq	$19
	.cfi_adjust_cfa_offset 8
	pushq	%r15
	.cfi_adjust_cfa_offset 8
	pushq	$19
	.cfi_adjust_cfa_offset 8
	leaq	760(%rsp), %rax
	pushq	%rax
	.cfi_adjust_cfa_offset 8
	pushq	$19
	.cfi_adjust_cfa_offset 8
	leaq	1096(%rsp), %r15
	pushq	%r15
	.cfi_adjust_cfa_offset 8
	callq	fmonty
	addq	$112, %rsp
	.cfi_adjust_cfa_offset -112
	movl	$19, %esi
	movl	$19, %ecx
	movq	%r13, %rdi
	movq	%r12, %rdx
	movq	%rbp, %r8
	movl	%ebx, %r9d
	callq	swap_conditional
	movl	$19, %esi
	movl	$19, %ecx
	leaq	352(%rsp), %rdi
	movq	%rdi, %r14
	movq	%r15, %rdx
	movq	%rbp, %r8
	movl	%ebx, %r9d
	callq	swap_conditional
	movq	(%rsp), %rax            # 8-byte Reload
	shll	$2, %eax
	movzbl	%al, %ebp
	shrq	$7, %rbp
	movl	$19, %esi
	movl	$19, %ecx
	movq	%r13, %rdi
	movq	%r12, %rdx
	movq	%rbp, %r8
	movl	%ebx, %r9d
	callq	swap_conditional
	movl	$19, %esi
	movl	$19, %ecx
	movq	%r14, %rdi
	movq	%r15, %rdx
	movq	%r15, %r14
	movq	%rbp, %r8
	movl	%ebx, %r9d
	callq	swap_conditional
	subq	$8, %rsp
	.cfi_adjust_cfa_offset 8
	movl	$19, %esi
	movl	$19, %ecx
	movl	$19, %r9d
	leaq	680(%rsp), %r13
	movq	%r13, %rdi
	leaq	200(%rsp), %r12
	movq	%r12, %rdx
	leaq	840(%rsp), %r15
	movq	%r15, %r8
	pushq	%rbx
	.cfi_adjust_cfa_offset 8
	pushq	1400(%rsp)
	.cfi_adjust_cfa_offset 8
	pushq	1400(%rsp)
	.cfi_adjust_cfa_offset 8
	pushq	$19
	.cfi_adjust_cfa_offset 8
	pushq	%r14
	.cfi_adjust_cfa_offset 8
	pushq	$19
	.cfi_adjust_cfa_offset 8
	leaq	568(%rsp), %rax
	pushq	%rax
	.cfi_adjust_cfa_offset 8
	pushq	$19
	.cfi_adjust_cfa_offset 8
	leaq	424(%rsp), %rax
	pushq	%rax
	.cfi_adjust_cfa_offset 8
	pushq	$19
	.cfi_adjust_cfa_offset 8
	leaq	120(%rsp), %rax
	pushq	%rax
	.cfi_adjust_cfa_offset 8
	pushq	$19
	.cfi_adjust_cfa_offset 8
	leaq	1256(%rsp), %r14
	pushq	%r14
	.cfi_adjust_cfa_offset 8
	callq	fmonty
	addq	$112, %rsp
	.cfi_adjust_cfa_offset -112
	movl	$19, %esi
	movl	$19, %ecx
	movq	%r13, %rdi
	movq	%r15, %rdx
	movq	%rbp, %r8
	movl	%ebx, %r9d
	callq	swap_conditional
	movl	$19, %esi
	movl	$19, %ecx
	movq	%r12, %rdi
	movq	%r14, %rdx
	movq	%rbp, %r8
	movl	%ebx, %r9d
	callq	swap_conditional
	movq	8(%rsp), %rax           # 8-byte Reload
	addq	$23, %rax
	cmpq	$23, 16(%rsp)           # 8-byte Folded Reload
	leaq	24(%rsp), %rcx
	cmovgq	%rax, %rcx
	cmpb	$0, 1392(%rsp)
	cmovneq	%rax, %rcx
	movzbl	(%rcx), %ebp
	movq	%rbp, (%rsp)            # 8-byte Spill
	shrq	$7, %rbp
	movl	$19, %esi
	movl	$19, %ecx
	movq	%r13, %rdi
	movq	%r15, %rdx
	movq	%rbp, %r8
	movl	%ebx, %r9d
	callq	swap_conditional
	movl	$19, %esi
	movl	$19, %ecx
	movq	%r12, %rdi
	movq	%r14, %rdx
	movq	%rbp, %r8
	movl	%ebx, %r9d
	callq	swap_conditional
	subq	$8, %rsp
	.cfi_adjust_cfa_offset 8
	movl	$19, %esi
	movl	$19, %ecx
	movl	$19, %r9d
	leaq	40(%rsp), %r13
	movq	%r13, %rdi
	leaq	360(%rsp), %rdx
	leaq	520(%rsp), %r8
	pushq	%rbx
	.cfi_adjust_cfa_offset 8
	movq	1400(%rsp), %rax
	pushq	%rax
	.cfi_adjust_cfa_offset 8
	pushq	1400(%rsp)
	.cfi_adjust_cfa_offset 8
	pushq	$19
	.cfi_adjust_cfa_offset 8
	pushq	%r14
	.cfi_adjust_cfa_offset 8
	pushq	$19
	.cfi_adjust_cfa_offset 8
	pushq	%r15
	.cfi_adjust_cfa_offset 8
	pushq	$19
	.cfi_adjust_cfa_offset 8
	pushq	%r12
	.cfi_adjust_cfa_offset 8
	pushq	$19
	.cfi_adjust_cfa_offset 8
	leaq	760(%rsp), %rax
	pushq	%rax
	.cfi_adjust_cfa_offset 8
	pushq	$19
	.cfi_adjust_cfa_offset 8
	leaq	1096(%rsp), %r12
	pushq	%r12
	.cfi_adjust_cfa_offset 8
	callq	fmonty
	addq	$112, %rsp
	.cfi_adjust_cfa_offset -112
	movl	$19, %esi
	movl	$19, %ecx
	movq	%r13, %rdi
	leaq	512(%rsp), %r15
	movq	%r15, %rdx
	movq	%rbp, %r8
	movl	%ebx, %r9d
	callq	swap_conditional
	movl	$19, %esi
	movl	$19, %ecx
	leaq	352(%rsp), %r14
	movq	%r14, %rdi
	movq	%r12, %rdx
	movq	%r12, %r13
	movq	%rbp, %r8
	movl	%ebx, %r9d
	callq	swap_conditional
	movq	(%rsp), %rax            # 8-byte Reload
	addl	%eax, %eax
	movzbl	%al, %ecx
	movq	%rcx, (%rsp)            # 8-byte Spill
	movzbl	%al, %ebp
	shrq	$7, %rbp
	movl	$19, %esi
	movl	$19, %ecx
	leaq	32(%rsp), %r12
	movq	%r12, %rdi
	movq	%r15, %rdx
	movq	%rbp, %r8
	movl	%ebx, %r9d
	callq	swap_conditional
	movl	$19, %esi
	movl	$19, %ecx
	movq	%r14, %rdi
	movq	%r13, %rdx
	movq	%r13, %r14
	movq	%rbp, %r8
	movl	%ebx, %r9d
	callq	swap_conditional
	subq	$8, %rsp
	.cfi_adjust_cfa_offset 8
	movl	$19, %esi
	movl	$19, %ecx
	movl	$19, %r9d
	leaq	680(%rsp), %r13
	movq	%r13, %rdi
	leaq	200(%rsp), %rdx
	leaq	840(%rsp), %r15
	movq	%r15, %r8
	pushq	%rbx
	.cfi_adjust_cfa_offset 8
	movq	1400(%rsp), %rax
	pushq	%rax
	.cfi_adjust_cfa_offset 8
	movq	1400(%rsp), %rax
	pushq	%rax
	.cfi_adjust_cfa_offset 8
	pushq	$19
	.cfi_adjust_cfa_offset 8
	pushq	%r14
	.cfi_adjust_cfa_offset 8
	pushq	$19
	.cfi_adjust_cfa_offset 8
	leaq	568(%rsp), %rax
	pushq	%rax
	.cfi_adjust_cfa_offset 8
	pushq	$19
	.cfi_adjust_cfa_offset 8
	leaq	424(%rsp), %rax
	pushq	%rax
	.cfi_adjust_cfa_offset 8
	pushq	$19
	.cfi_adjust_cfa_offset 8
	pushq	%r12
	.cfi_adjust_cfa_offset 8
	pushq	$19
	.cfi_adjust_cfa_offset 8
	leaq	1256(%rsp), %r12
	pushq	%r12
	.cfi_adjust_cfa_offset 8
	callq	fmonty
	addq	$112, %rsp
	.cfi_adjust_cfa_offset -112
	movl	$19, %esi
	movl	$19, %ecx
	movq	%r13, %rdi
	movq	%r15, %rdx
	movq	%rbp, %r8
	movl	%ebx, %r9d
	callq	swap_conditional
	movl	$19, %esi
	movl	$19, %ecx
	leaq	192(%rsp), %rdi
	movq	%r12, %rdx
	movq	%rbp, %r8
	movl	%ebx, %r9d
	callq	swap_conditional
	movq	(%rsp), %r14            # 8-byte Reload
	leal	(%r14,%r14), %eax
	movzbl	%al, %ebp
	shrq	$7, %rbp
	movl	$19, %esi
	movl	$19, %ecx
	movq	%r13, %rdi
	movq	%r15, %rdx
	movq	%rbp, %r8
	movl	%ebx, %r9d
	callq	swap_conditional
	movl	$19, %esi
	movl	$19, %ecx
	leaq	192(%rsp), %rdi
	movq	%r12, %rdx
	movq	%r12, %r13
	movq	%rbp, %r8
	movl	%ebx, %r9d
	callq	swap_conditional
	subq	$8, %rsp
	.cfi_adjust_cfa_offset 8
	movl	$19, %esi
	movl	$19, %ecx
	movl	$19, %r9d
	leaq	40(%rsp), %r12
	movq	%r12, %rdi
	leaq	360(%rsp), %rdx
	leaq	520(%rsp), %r15
	movq	%r15, %r8
	pushq	%rbx
	.cfi_adjust_cfa_offset 8
	pushq	1400(%rsp)
	.cfi_adjust_cfa_offset 8
	pushq	1400(%rsp)
	.cfi_adjust_cfa_offset 8
	pushq	$19
	.cfi_adjust_cfa_offset 8
	pushq	%r13
	.cfi_adjust_cfa_offset 8
	pushq	$19
	.cfi_adjust_cfa_offset 8
	leaq	888(%rsp), %rax
	pushq	%rax
	.cfi_adjust_cfa_offset 8
	pushq	$19
	.cfi_adjust_cfa_offset 8
	leaq	264(%rsp), %rax
	pushq	%rax
	.cfi_adjust_cfa_offset 8
	pushq	$19
	.cfi_adjust_cfa_offset 8
	leaq	760(%rsp), %rax
	pushq	%rax
	.cfi_adjust_cfa_offset 8
	pushq	$19
	.cfi_adjust_cfa_offset 8
	leaq	1096(%rsp), %r13
	pushq	%r13
	.cfi_adjust_cfa_offset 8
	callq	fmonty
	addq	$112, %rsp
	.cfi_adjust_cfa_offset -112
	movl	$19, %esi
	movl	$19, %ecx
	movq	%r12, %rdi
	movq	%r15, %rdx
	movq	%r15, %r12
	movq	%rbp, %r8
	movl	%ebx, %r9d
	callq	swap_conditional
	movl	$19, %esi
	movl	$19, %ecx
	leaq	352(%rsp), %rdi
	movq	%rdi, %r15
	movq	%r13, %rdx
	movq	%rbp, %r8
	movl	%ebx, %r9d
	callq	swap_conditional
	shll	$2, %r14d
	movzbl	%r14b, %ecx
	movq	%rcx, (%rsp)            # 8-byte Spill
	movzbl	%r14b, %ebp
	shrq	$7, %rbp
	movl	$19, %esi
	movl	$19, %ecx
	leaq	32(%rsp), %rdi
	movq	%r12, %rdx
	movq	%rbp, %r8
	movl	%ebx, %r9d
	callq	swap_conditional
	movl	$19, %esi
	movl	$19, %ecx
	movq	%r15, %rdi
	movq	%r13, %rdx
	movq	%r13, %r14
	movq	%rbp, %r8
	movl	%ebx, %r9d
	callq	swap_conditional
	subq	$8, %rsp
	.cfi_adjust_cfa_offset 8
	movl	$19, %esi
	movl	$19, %ecx
	movl	$19, %r9d
	leaq	680(%rsp), %r13
	movq	%r13, %rdi
	leaq	200(%rsp), %rdx
	leaq	840(%rsp), %r12
	movq	%r12, %r8
	pushq	%rbx
	.cfi_adjust_cfa_offset 8
	movq	1400(%rsp), %rax
	pushq	%rax
	.cfi_adjust_cfa_offset 8
	pushq	1400(%rsp)
	.cfi_adjust_cfa_offset 8
	pushq	$19
	.cfi_adjust_cfa_offset 8
	pushq	%r14
	.cfi_adjust_cfa_offset 8
	pushq	$19
	.cfi_adjust_cfa_offset 8
	leaq	568(%rsp), %rax
	pushq	%rax
	.cfi_adjust_cfa_offset 8
	pushq	$19
	.cfi_adjust_cfa_offset 8
	pushq	%r15
	.cfi_adjust_cfa_offset 8
	pushq	$19
	.cfi_adjust_cfa_offset 8
	leaq	120(%rsp), %rax
	pushq	%rax
	.cfi_adjust_cfa_offset 8
	pushq	$19
	.cfi_adjust_cfa_offset 8
	leaq	1256(%rsp), %r14
	pushq	%r14
	.cfi_adjust_cfa_offset 8
	callq	fmonty
	addq	$112, %rsp
	.cfi_adjust_cfa_offset -112
	movl	$19, %esi
	movl	$19, %ecx
	movq	%r13, %rdi
	movq	%r13, %r15
	movq	%r12, %rdx
	movq	%r12, %r13
	movq	%rbp, %r8
	movl	%ebx, %r9d
	callq	swap_conditional
	movl	$19, %esi
	movl	$19, %ecx
	leaq	192(%rsp), %r12
	movq	%r12, %rdi
	movq	%r14, %rdx
	movq	%rbp, %r8
	movl	%ebx, %r9d
	callq	swap_conditional
	movq	(%rsp), %rax            # 8-byte Reload
	addl	%eax, %eax
	movzbl	%al, %ebp
	shrq	$7, %rbp
	movl	$19, %esi
	movl	$19, %ecx
	movq	%r15, %rdi
	movq	%r13, %rdx
	movq	%rbp, %r8
	movl	%ebx, %r9d
	callq	swap_conditional
	movl	$19, %esi
	movl	$19, %ecx
	movq	%r12, %rdi
	movq	%r14, %rdx
	movq	%r14, %r15
	movq	%rbp, %r8
	movl	%ebx, %r9d
	callq	swap_conditional
	subq	$8, %rsp
	.cfi_adjust_cfa_offset 8
	movl	$19, %esi
	movl	$19, %ecx
	movl	$19, %r9d
	leaq	40(%rsp), %r14
	movq	%r14, %rdi
	leaq	360(%rsp), %rdx
	leaq	520(%rsp), %r8
	pushq	%rbx
	.cfi_adjust_cfa_offset 8
	movq	1400(%rsp), %rax
	pushq	%rax
	.cfi_adjust_cfa_offset 8
	movq	1400(%rsp), %rax
	pushq	%rax
	.cfi_adjust_cfa_offset 8
	pushq	$19
	.cfi_adjust_cfa_offset 8
	pushq	%r15
	.cfi_adjust_cfa_offset 8
	pushq	$19
	.cfi_adjust_cfa_offset 8
	pushq	%r13
	.cfi_adjust_cfa_offset 8
	pushq	$19
	.cfi_adjust_cfa_offset 8
	pushq	%r12
	.cfi_adjust_cfa_offset 8
	pushq	$19
	.cfi_adjust_cfa_offset 8
	leaq	760(%rsp), %rax
	pushq	%rax
	.cfi_adjust_cfa_offset 8
	pushq	$19
	.cfi_adjust_cfa_offset 8
	leaq	1096(%rsp), %r12
	pushq	%r12
	.cfi_adjust_cfa_offset 8
	callq	fmonty
	addq	$112, %rsp
	.cfi_adjust_cfa_offset -112
	movl	$19, %esi
	movl	$19, %ecx
	movq	%r14, %rdi
	movq	%r14, %r13
	leaq	512(%rsp), %rdx
	movq	%rbp, %r8
	movl	%ebx, %r9d
	callq	swap_conditional
	movl	$19, %esi
	movl	$19, %ecx
	leaq	352(%rsp), %r15
	movq	%r15, %rdi
	movq	%r12, %rdx
	movq	%rbp, %r8
	movl	%ebx, %r9d
	callq	swap_conditional
	movq	(%rsp), %rax            # 8-byte Reload
	shll	$2, %eax
	movzbl	%al, %r14d
	movq	%r14, %rbp
	shrq	$7, %rbp
	movl	$19, %esi
	movl	$19, %ecx
	movq	%r13, %rdi
	leaq	512(%rsp), %rdx
	movq	%rbp, %r8
	movl	%ebx, %r9d
	callq	swap_conditional
	movl	$19, %esi
	movl	$19, %ecx
	movq	%r15, %rdi
	movq	%r12, %rdx
	movq	%r12, %r15
	movq	%rbp, %r8
	movl	%ebx, %r9d
	callq	swap_conditional
	subq	$8, %rsp
	.cfi_adjust_cfa_offset 8
	movl	$19, %esi
	movl	$19, %ecx
	movl	$19, %r9d
	leaq	680(%rsp), %r12
	movq	%r12, %rdi
	leaq	200(%rsp), %rdx
	leaq	840(%rsp), %r13
	movq	%r13, %r8
	pushq	%rbx
	.cfi_adjust_cfa_offset 8
	pushq	1400(%rsp)
	.cfi_adjust_cfa_offset 8
	pushq	1400(%rsp)
	.cfi_adjust_cfa_offset 8
	pushq	$19
	.cfi_adjust_cfa_offset 8
	pushq	%r15
	.cfi_adjust_cfa_offset 8
	pushq	$19
	.cfi_adjust_cfa_offset 8
	leaq	568(%rsp), %rax
	pushq	%rax
	.cfi_adjust_cfa_offset 8
	pushq	$19
	.cfi_adjust_cfa_offset 8
	leaq	424(%rsp), %rax
	pushq	%rax
	.cfi_adjust_cfa_offset 8
	pushq	$19
	.cfi_adjust_cfa_offset 8
	leaq	120(%rsp), %rax
	pushq	%rax
	.cfi_adjust_cfa_offset 8
	pushq	$19
	.cfi_adjust_cfa_offset 8
	leaq	1256(%rsp), %r15
	pushq	%r15
	.cfi_adjust_cfa_offset 8
	callq	fmonty
	addq	$112, %rsp
	.cfi_adjust_cfa_offset -112
	movl	$19, %esi
	movl	$19, %ecx
	movq	%r12, %rdi
	movq	%r13, %rdx
	movq	%rbp, %r8
	movl	%ebx, %r9d
	callq	swap_conditional
	movl	$19, %esi
	movl	$19, %ecx
	leaq	192(%rsp), %rdi
	movq	%r15, %rdx
	movq	%rbp, %r8
	movl	%ebx, %r9d
	callq	swap_conditional
	leal	(%r14,%r14), %eax
	movzbl	%al, %ebp
	shrq	$7, %rbp
	movl	$19, %esi
	movl	$19, %ecx
	movq	%r12, %rdi
	movq	%r13, %rdx
	movq	%rbp, %r8
	movl	%ebx, %r9d
	callq	swap_conditional
	movl	$19, %esi
	movl	$19, %ecx
	leaq	192(%rsp), %rdi
	movq	%r15, %rdx
	movq	%r15, %r12
	movq	%rbp, %r8
	movl	%ebx, %r9d
	callq	swap_conditional
	subq	$8, %rsp
	.cfi_adjust_cfa_offset 8
	movl	$19, %esi
	movl	$19, %ecx
	movl	$19, %r9d
	leaq	40(%rsp), %r13
	movq	%r13, %rdi
	leaq	360(%rsp), %rdx
	leaq	520(%rsp), %r15
	movq	%r15, %r8
	pushq	%rbx
	.cfi_adjust_cfa_offset 8
	pushq	1400(%rsp)
	.cfi_adjust_cfa_offset 8
	pushq	1400(%rsp)
	.cfi_adjust_cfa_offset 8
	pushq	$19
	.cfi_adjust_cfa_offset 8
	pushq	%r12
	.cfi_adjust_cfa_offset 8
	pushq	$19
	.cfi_adjust_cfa_offset 8
	leaq	888(%rsp), %rax
	pushq	%rax
	.cfi_adjust_cfa_offset 8
	pushq	$19
	.cfi_adjust_cfa_offset 8
	leaq	264(%rsp), %rax
	pushq	%rax
	.cfi_adjust_cfa_offset 8
	pushq	$19
	.cfi_adjust_cfa_offset 8
	leaq	760(%rsp), %rax
	pushq	%rax
	.cfi_adjust_cfa_offset 8
	pushq	$19
	.cfi_adjust_cfa_offset 8
	leaq	1096(%rsp), %r12
	pushq	%r12
	.cfi_adjust_cfa_offset 8
	callq	fmonty
	addq	$112, %rsp
	.cfi_adjust_cfa_offset -112
	movl	$19, %esi
	movl	$19, %ecx
	movq	%r13, %rdi
	movq	%r15, %rdx
	movq	%rbp, %r8
	movl	%ebx, %r9d
	callq	swap_conditional
	movl	$19, %esi
	movl	$19, %ecx
	leaq	352(%rsp), %r15
	movq	%r15, %rdi
	movq	%r12, %rdx
	movq	%rbp, %r8
	movl	%ebx, %r9d
	callq	swap_conditional
	shll	$2, %r14d
	movzbl	%r14b, %ebp
	shrq	$7, %rbp
	movl	$19, %esi
	movl	$19, %ecx
	movq	%r13, %rdi
	leaq	512(%rsp), %rdx
	movq	%rbp, %r8
	movl	%ebx, %r9d
	callq	swap_conditional
	movl	$19, %esi
	movl	$19, %ecx
	movq	%r15, %rdi
	movq	%r12, %rdx
	movq	%r12, %r14
	movq	%rbp, %r8
	movl	%ebx, %r9d
	callq	swap_conditional
	subq	$8, %rsp
	.cfi_adjust_cfa_offset 8
	movl	$19, %esi
	movl	$19, %ecx
	movl	$19, %r9d
	leaq	680(%rsp), %r13
	movq	%r13, %rdi
	leaq	200(%rsp), %rdx
	leaq	840(%rsp), %r15
	movq	%r15, %r8
	pushq	%rbx
	.cfi_adjust_cfa_offset 8
	movq	1400(%rsp), %r12
	pushq	%r12
	.cfi_adjust_cfa_offset 8
	movq	1400(%rsp), %rax
	pushq	%rax
	.cfi_adjust_cfa_offset 8
	pushq	$19
	.cfi_adjust_cfa_offset 8
	pushq	%r14
	.cfi_adjust_cfa_offset 8
	pushq	$19
	.cfi_adjust_cfa_offset 8
	leaq	568(%rsp), %rax
	pushq	%rax
	.cfi_adjust_cfa_offset 8
	pushq	$19
	.cfi_adjust_cfa_offset 8
	leaq	424(%rsp), %rax
	pushq	%rax
	.cfi_adjust_cfa_offset 8
	pushq	$19
	.cfi_adjust_cfa_offset 8
	leaq	120(%rsp), %rax
	pushq	%rax
	.cfi_adjust_cfa_offset 8
	pushq	$19
	.cfi_adjust_cfa_offset 8
	leaq	1256(%rsp), %r14
	pushq	%r14
	.cfi_adjust_cfa_offset 8
	callq	fmonty
	addq	$112, %rsp
	.cfi_adjust_cfa_offset -112
	movl	$19, %esi
	movl	$19, %ecx
	movq	%r13, %rdi
	movq	%r15, %rdx
	movq	%r15, %r13
	movq	%rbp, %r8
	movl	%ebx, %r9d
	callq	swap_conditional
	movl	$19, %esi
	movl	$19, %ecx
	leaq	192(%rsp), %rdi
	movq	%rdi, %r12
	movq	%r14, %rdx
	movq	%r14, %r15
	movq	%rbp, %r8
	movl	%ebx, %r9d
	callq	swap_conditional
	movq	8(%rsp), %rax           # 8-byte Reload
	addq	$22, %rax
	cmpq	$22, 16(%rsp)           # 8-byte Folded Reload
	leaq	24(%rsp), %rcx
	cmovgq	%rax, %rcx
	cmpb	$0, 1392(%rsp)
	cmovneq	%rax, %rcx
	movzbl	(%rcx), %r14d
	movq	%r14, %rbp
	shrq	$7, %rbp
	movl	$19, %esi
	movl	$19, %ecx
	leaq	672(%rsp), %rdi
	movq	%r13, %rdx
	movq	%rbp, %r8
	movl	%ebx, %r9d
	callq	swap_conditional
	movl	$19, %esi
	movl	$19, %ecx
	movq	%r12, %rdi
	movq	%r15, %rdx
	movq	%r15, %r12
	movq	%rbp, %r8
	movl	%ebx, %r9d
	callq	swap_conditional
	subq	$8, %rsp
	.cfi_adjust_cfa_offset 8
	movl	$19, %esi
	movl	$19, %ecx
	movl	$19, %r9d
	leaq	40(%rsp), %r15
	movq	%r15, %rdi
	leaq	360(%rsp), %rdx
	leaq	520(%rsp), %r13
	movq	%r13, %r8
	pushq	%rbx
	.cfi_adjust_cfa_offset 8
	pushq	1400(%rsp)
	.cfi_adjust_cfa_offset 8
	pushq	1400(%rsp)
	.cfi_adjust_cfa_offset 8
	pushq	$19
	.cfi_adjust_cfa_offset 8
	pushq	%r12
	.cfi_adjust_cfa_offset 8
	pushq	$19
	.cfi_adjust_cfa_offset 8
	leaq	888(%rsp), %rax
	pushq	%rax
	.cfi_adjust_cfa_offset 8
	pushq	$19
	.cfi_adjust_cfa_offset 8
	leaq	264(%rsp), %rax
	pushq	%rax
	.cfi_adjust_cfa_offset 8
	pushq	$19
	.cfi_adjust_cfa_offset 8
	leaq	760(%rsp), %rax
	pushq	%rax
	.cfi_adjust_cfa_offset 8
	pushq	$19
	.cfi_adjust_cfa_offset 8
	leaq	1096(%rsp), %r12
	pushq	%r12
	.cfi_adjust_cfa_offset 8
	callq	fmonty
	addq	$112, %rsp
	.cfi_adjust_cfa_offset -112
	movl	$19, %esi
	movl	$19, %ecx
	movq	%r15, %rdi
	movq	%r13, %rdx
	movq	%rbp, %r8
	movl	%ebx, %r9d
	callq	swap_conditional
	movl	$19, %esi
	movl	$19, %ecx
	leaq	352(%rsp), %r15
	movq	%r15, %rdi
	movq	%r12, %rdx
	movq	%rbp, %r8
	movl	%ebx, %r9d
	callq	swap_conditional
	leal	(%r14,%r14), %eax
	movzbl	%al, %r14d
	movzbl	%al, %ebp
	shrq	$7, %rbp
	movl	$19, %esi
	movl	$19, %ecx
	leaq	32(%rsp), %rdi
	movq	%r13, %rdx
	movq	%rbp, %r8
	movl	%ebx, %r9d
	callq	swap_conditional
	movl	$19, %esi
	movl	$19, %ecx
	movq	%r15, %rdi
	movq	%r12, %rdx
	movq	%r12, %r15
	movq	%rbp, %r8
	movl	%ebx, %r9d
	callq	swap_conditional
	subq	$8, %rsp
	.cfi_adjust_cfa_offset 8
	movl	$19, %esi
	movl	$19, %ecx
	movl	$19, %r9d
	leaq	680(%rsp), %r13
	movq	%r13, %rdi
	leaq	200(%rsp), %rdx
	leaq	840(%rsp), %r12
	movq	%r12, %r8
	pushq	%rbx
	.cfi_adjust_cfa_offset 8
	movq	1400(%rsp), %rax
	pushq	%rax
	.cfi_adjust_cfa_offset 8
	movq	1400(%rsp), %rax
	pushq	%rax
	.cfi_adjust_cfa_offset 8
	pushq	$19
	.cfi_adjust_cfa_offset 8
	pushq	%r15
	.cfi_adjust_cfa_offset 8
	pushq	$19
	.cfi_adjust_cfa_offset 8
	leaq	568(%rsp), %rax
	pushq	%rax
	.cfi_adjust_cfa_offset 8
	pushq	$19
	.cfi_adjust_cfa_offset 8
	leaq	424(%rsp), %rax
	pushq	%rax
	.cfi_adjust_cfa_offset 8
	pushq	$19
	.cfi_adjust_cfa_offset 8
	leaq	120(%rsp), %rax
	pushq	%rax
	.cfi_adjust_cfa_offset 8
	pushq	$19
	.cfi_adjust_cfa_offset 8
	leaq	1256(%rsp), %r15
	pushq	%r15
	.cfi_adjust_cfa_offset 8
	callq	fmonty
	addq	$112, %rsp
	.cfi_adjust_cfa_offset -112
	movl	$19, %esi
	movl	$19, %ecx
	movq	%r13, %rdi
	movq	%r12, %rdx
	movq	%rbp, %r8
	movl	%ebx, %r9d
	callq	swap_conditional
	movl	$19, %esi
	movl	$19, %ecx
	leaq	192(%rsp), %rdi
	movq	%rdi, %r12
	movq	%r15, %rdx
	movq	%rbp, %r8
	movl	%ebx, %r9d
	callq	swap_conditional
	leal	(%r14,%r14), %eax
	movzbl	%al, %ebp
	shrq	$7, %rbp
	movl	$19, %esi
	movl	$19, %ecx
	movq	%r13, %rdi
	leaq	832(%rsp), %rdx
	movq	%rbp, %r8
	movl	%ebx, %r9d
	callq	swap_conditional
	movl	$19, %esi
	movl	$19, %ecx
	movq	%r12, %rdi
	movq	%r15, %rdx
	movq	%r15, %r13
	movq	%rbp, %r8
	movl	%ebx, %r9d
	callq	swap_conditional
	subq	$8, %rsp
	.cfi_adjust_cfa_offset 8
	movl	$19, %esi
	movl	$19, %ecx
	movl	$19, %r9d
	leaq	40(%rsp), %r15
	movq	%r15, %rdi
	leaq	360(%rsp), %rdx
	leaq	520(%rsp), %r12
	movq	%r12, %r8
	pushq	%rbx
	.cfi_adjust_cfa_offset 8
	pushq	1400(%rsp)
	.cfi_adjust_cfa_offset 8
	pushq	1400(%rsp)
	.cfi_adjust_cfa_offset 8
	pushq	$19
	.cfi_adjust_cfa_offset 8
	pushq	%r13
	.cfi_adjust_cfa_offset 8
	pushq	$19
	.cfi_adjust_cfa_offset 8
	leaq	888(%rsp), %rax
	pushq	%rax
	.cfi_adjust_cfa_offset 8
	pushq	$19
	.cfi_adjust_cfa_offset 8
	leaq	264(%rsp), %rax
	pushq	%rax
	.cfi_adjust_cfa_offset 8
	pushq	$19
	.cfi_adjust_cfa_offset 8
	leaq	760(%rsp), %rax
	pushq	%rax
	.cfi_adjust_cfa_offset 8
	pushq	$19
	.cfi_adjust_cfa_offset 8
	leaq	1096(%rsp), %r13
	pushq	%r13
	.cfi_adjust_cfa_offset 8
	callq	fmonty
	addq	$112, %rsp
	.cfi_adjust_cfa_offset -112
	movl	$19, %esi
	movl	$19, %ecx
	movq	%r15, %rdi
	movq	%r12, %rdx
	movq	%rbp, %r8
	movl	%ebx, %r9d
	callq	swap_conditional
	movl	$19, %esi
	movl	$19, %ecx
	leaq	352(%rsp), %r15
	movq	%r15, %rdi
	movq	%r13, %rdx
	movq	%rbp, %r8
	movl	%ebx, %r9d
	callq	swap_conditional
	shll	$2, %r14d
	movzbl	%r14b, %eax
	movq	%rax, (%rsp)            # 8-byte Spill
	movzbl	%r14b, %ebp
	shrq	$7, %rbp
	movl	$19, %esi
	movl	$19, %ecx
	leaq	32(%rsp), %r14
	movq	%r14, %rdi
	movq	%r12, %rdx
	movq	%rbp, %r8
	movl	%ebx, %r9d
	callq	swap_conditional
	movl	$19, %esi
	movl	$19, %ecx
	movq	%r15, %rdi
	movq	%r13, %rdx
	movq	%r13, %r15
	movq	%rbp, %r8
	movl	%ebx, %r9d
	callq	swap_conditional
	subq	$8, %rsp
	.cfi_adjust_cfa_offset 8
	movl	$19, %esi
	movl	$19, %ecx
	movl	$19, %r9d
	leaq	680(%rsp), %r13
	movq	%r13, %rdi
	leaq	200(%rsp), %rdx
	leaq	840(%rsp), %r12
	movq	%r12, %r8
	pushq	%rbx
	.cfi_adjust_cfa_offset 8
	movq	1400(%rsp), %rax
	pushq	%rax
	.cfi_adjust_cfa_offset 8
	movq	1400(%rsp), %rax
	pushq	%rax
	.cfi_adjust_cfa_offset 8
	pushq	$19
	.cfi_adjust_cfa_offset 8
	pushq	%r15
	.cfi_adjust_cfa_offset 8
	pushq	$19
	.cfi_adjust_cfa_offset 8
	leaq	568(%rsp), %rax
	pushq	%rax
	.cfi_adjust_cfa_offset 8
	pushq	$19
	.cfi_adjust_cfa_offset 8
	leaq	424(%rsp), %rax
	pushq	%rax
	.cfi_adjust_cfa_offset 8
	pushq	$19
	.cfi_adjust_cfa_offset 8
	pushq	%r14
	.cfi_adjust_cfa_offset 8
	pushq	$19
	.cfi_adjust_cfa_offset 8
	leaq	1256(%rsp), %r14
	pushq	%r14
	.cfi_adjust_cfa_offset 8
	callq	fmonty
	addq	$112, %rsp
	.cfi_adjust_cfa_offset -112
	movl	$19, %esi
	movl	$19, %ecx
	movq	%r13, %rdi
	movq	%r12, %rdx
	movq	%r12, %r15
	movq	%rbp, %r8
	movl	%ebx, %r9d
	callq	swap_conditional
	movl	$19, %esi
	movl	$19, %ecx
	leaq	192(%rsp), %r12
	movq	%r12, %rdi
	movq	%r14, %rdx
	movq	%rbp, %r8
	movl	%ebx, %r9d
	callq	swap_conditional
	movq	(%rsp), %rax            # 8-byte Reload
	addl	%eax, %eax
	movzbl	%al, %ebp
	shrq	$7, %rbp
	movl	$19, %esi
	movl	$19, %ecx
	movq	%r13, %rdi
	movq	%r15, %rdx
	movq	%rbp, %r8
	movl	%ebx, %r9d
	callq	swap_conditional
	movl	$19, %esi
	movl	$19, %ecx
	movq	%r12, %rdi
	movq	%r14, %rdx
	movq	%r14, %r13
	movq	%rbp, %r8
	movl	%ebx, %r9d
	callq	swap_conditional
	subq	$8, %rsp
	.cfi_adjust_cfa_offset 8
	movl	$19, %esi
	movl	$19, %ecx
	movl	$19, %r9d
	leaq	40(%rsp), %r15
	movq	%r15, %rdi
	leaq	360(%rsp), %rdx
	leaq	520(%rsp), %r14
	movq	%r14, %r8
	pushq	%rbx
	.cfi_adjust_cfa_offset 8
	movq	1400(%rsp), %rax
	pushq	%rax
	.cfi_adjust_cfa_offset 8
	movq	1400(%rsp), %rax
	pushq	%rax
	.cfi_adjust_cfa_offset 8
	pushq	$19
	.cfi_adjust_cfa_offset 8
	pushq	%r13
	.cfi_adjust_cfa_offset 8
	pushq	$19
	.cfi_adjust_cfa_offset 8
	leaq	888(%rsp), %rax
	pushq	%rax
	.cfi_adjust_cfa_offset 8
	pushq	$19
	.cfi_adjust_cfa_offset 8
	pushq	%r12
	.cfi_adjust_cfa_offset 8
	pushq	$19
	.cfi_adjust_cfa_offset 8
	leaq	760(%rsp), %rax
	pushq	%rax
	.cfi_adjust_cfa_offset 8
	pushq	$19
	.cfi_adjust_cfa_offset 8
	leaq	1096(%rsp), %r12
	pushq	%r12
	.cfi_adjust_cfa_offset 8
	callq	fmonty
	addq	$112, %rsp
	.cfi_adjust_cfa_offset -112
	movl	$19, %esi
	movl	$19, %ecx
	movq	%r15, %rdi
	movq	%r14, %rdx
	movq	%r14, %r15
	movq	%rbp, %r8
	movl	%ebx, %r9d
	callq	swap_conditional
	movl	$19, %esi
	movl	$19, %ecx
	leaq	352(%rsp), %rdi
	movq	%rdi, %r13
	movq	%r12, %rdx
	movq	%rbp, %r8
	movl	%ebx, %r9d
	callq	swap_conditional
	movq	(%rsp), %rax            # 8-byte Reload
	shll	$2, %eax
	movzbl	%al, %r14d
	movq	%r14, %rbp
	shrq	$7, %rbp
	movl	$19, %esi
	movl	$19, %ecx
	leaq	32(%rsp), %rdi
	movq	%r15, %rdx
	movq	%rbp, %r8
	movl	%ebx, %r9d
	callq	swap_conditional
	movl	$19, %esi
	movl	$19, %ecx
	movq	%r13, %rdi
	movq	%r12, %rdx
	movq	%r12, %r15
	movq	%rbp, %r8
	movl	%ebx, %r9d
	callq	swap_conditional
	subq	$8, %rsp
	.cfi_adjust_cfa_offset 8
	movl	$19, %esi
	movl	$19, %ecx
	movl	$19, %r9d
	leaq	680(%rsp), %r13
	movq	%r13, %rdi
	leaq	200(%rsp), %rdx
	leaq	840(%rsp), %r12
	movq	%r12, %r8
	pushq	%rbx
	.cfi_adjust_cfa_offset 8
	pushq	1400(%rsp)
	.cfi_adjust_cfa_offset 8
	pushq	1400(%rsp)
	.cfi_adjust_cfa_offset 8
	pushq	$19
	.cfi_adjust_cfa_offset 8
	pushq	%r15
	.cfi_adjust_cfa_offset 8
	pushq	$19
	.cfi_adjust_cfa_offset 8
	leaq	568(%rsp), %rax
	pushq	%rax
	.cfi_adjust_cfa_offset 8
	pushq	$19
	.cfi_adjust_cfa_offset 8
	leaq	424(%rsp), %rax
	pushq	%rax
	.cfi_adjust_cfa_offset 8
	pushq	$19
	.cfi_adjust_cfa_offset 8
	leaq	120(%rsp), %rax
	pushq	%rax
	.cfi_adjust_cfa_offset 8
	pushq	$19
	.cfi_adjust_cfa_offset 8
	leaq	1256(%rsp), %r15
	pushq	%r15
	.cfi_adjust_cfa_offset 8
	callq	fmonty
	addq	$112, %rsp
	.cfi_adjust_cfa_offset -112
	movl	$19, %esi
	movl	$19, %ecx
	movq	%r13, %rdi
	movq	%r12, %rdx
	movq	%rbp, %r8
	movl	%ebx, %r9d
	callq	swap_conditional
	movl	$19, %esi
	movl	$19, %ecx
	leaq	192(%rsp), %rdi
	movq	%rdi, %r12
	movq	%r15, %rdx
	movq	%rbp, %r8
	movl	%ebx, %r9d
	callq	swap_conditional
	leal	(%r14,%r14), %eax
	movzbl	%al, %ebp
	shrq	$7, %rbp
	movl	$19, %esi
	movl	$19, %ecx
	movq	%r13, %rdi
	leaq	832(%rsp), %rdx
	movq	%rbp, %r8
	movl	%ebx, %r9d
	callq	swap_conditional
	movl	$19, %esi
	movl	$19, %ecx
	movq	%r12, %rdi
	movq	%r15, %rdx
	movq	%r15, %r13
	movq	%rbp, %r8
	movl	%ebx, %r9d
	callq	swap_conditional
	subq	$8, %rsp
	.cfi_adjust_cfa_offset 8
	movl	$19, %esi
	movl	$19, %ecx
	movl	$19, %r9d
	leaq	40(%rsp), %r15
	movq	%r15, %rdi
	leaq	360(%rsp), %rdx
	leaq	520(%rsp), %r12
	movq	%r12, %r8
	pushq	%rbx
	.cfi_adjust_cfa_offset 8
	movq	1400(%rsp), %rax
	pushq	%rax
	.cfi_adjust_cfa_offset 8
	movq	1400(%rsp), %rax
	pushq	%rax
	.cfi_adjust_cfa_offset 8
	pushq	$19
	.cfi_adjust_cfa_offset 8
	pushq	%r13
	.cfi_adjust_cfa_offset 8
	pushq	$19
	.cfi_adjust_cfa_offset 8
	leaq	888(%rsp), %rax
	pushq	%rax
	.cfi_adjust_cfa_offset 8
	pushq	$19
	.cfi_adjust_cfa_offset 8
	leaq	264(%rsp), %rax
	pushq	%rax
	.cfi_adjust_cfa_offset 8
	pushq	$19
	.cfi_adjust_cfa_offset 8
	leaq	760(%rsp), %rax
	pushq	%rax
	.cfi_adjust_cfa_offset 8
	pushq	$19
	.cfi_adjust_cfa_offset 8
	leaq	1096(%rsp), %r13
	pushq	%r13
	.cfi_adjust_cfa_offset 8
	callq	fmonty
	addq	$112, %rsp
	.cfi_adjust_cfa_offset -112
	movl	$19, %esi
	movl	$19, %ecx
	movq	%r15, %rdi
	movq	%r12, %rdx
	movq	%rbp, %r8
	movl	%ebx, %r9d
	callq	swap_conditional
	movl	$19, %esi
	movl	$19, %ecx
	leaq	352(%rsp), %rdi
	movq	%rdi, %r12
	movq	%r13, %rdx
	movq	%rbp, %r8
	movl	%ebx, %r9d
	callq	swap_conditional
	shll	$2, %r14d
	movzbl	%r14b, %ebp
	shrq	$7, %rbp
	movl	$19, %esi
	movl	$19, %ecx
	movq	%r15, %rdi
	leaq	512(%rsp), %rdx
	movq	%rbp, %r8
	movl	%ebx, %r9d
	callq	swap_conditional
	movl	$19, %esi
	movl	$19, %ecx
	movq	%r12, %rdi
	movq	%r13, %rdx
	movq	%r13, %r15
	movq	%rbp, %r8
	movl	%ebx, %r9d
	callq	swap_conditional
	subq	$8, %rsp
	.cfi_adjust_cfa_offset 8
	movl	$19, %esi
	movl	$19, %ecx
	movl	$19, %r9d
	leaq	680(%rsp), %r13
	movq	%r13, %rdi
	leaq	200(%rsp), %r14
	movq	%r14, %rdx
	leaq	840(%rsp), %r8
	pushq	%rbx
	.cfi_adjust_cfa_offset 8
	pushq	1400(%rsp)
	.cfi_adjust_cfa_offset 8
	pushq	1400(%rsp)
	.cfi_adjust_cfa_offset 8
	pushq	$19
	.cfi_adjust_cfa_offset 8
	pushq	%r15
	.cfi_adjust_cfa_offset 8
	pushq	$19
	.cfi_adjust_cfa_offset 8
	leaq	568(%rsp), %rax
	pushq	%rax
	.cfi_adjust_cfa_offset 8
	pushq	$19
	.cfi_adjust_cfa_offset 8
	pushq	%r12
	.cfi_adjust_cfa_offset 8
	pushq	$19
	.cfi_adjust_cfa_offset 8
	leaq	120(%rsp), %rax
	pushq	%rax
	.cfi_adjust_cfa_offset 8
	pushq	$19
	.cfi_adjust_cfa_offset 8
	leaq	1256(%rsp), %r12
	pushq	%r12
	.cfi_adjust_cfa_offset 8
	callq	fmonty
	addq	$112, %rsp
	.cfi_adjust_cfa_offset -112
	movl	$19, %esi
	movl	$19, %ecx
	movq	%r13, %rdi
	leaq	832(%rsp), %rdx
	movq	%rbp, %r8
	movl	%ebx, %r9d
	callq	swap_conditional
	movl	$19, %esi
	movl	$19, %ecx
	movq	%r14, %rdi
	movq	%r12, %rdx
	movq	%rbp, %r8
	movl	%ebx, %r9d
	callq	swap_conditional
	movq	8(%rsp), %rax           # 8-byte Reload
	addq	$21, %rax
	cmpq	$21, 16(%rsp)           # 8-byte Folded Reload
	leaq	24(%rsp), %rcx
	cmovgq	%rax, %rcx
	cmpb	$0, 1392(%rsp)
	cmovneq	%rax, %rcx
	movzbl	(%rcx), %ebp
	movq	%rbp, (%rsp)            # 8-byte Spill
	shrq	$7, %rbp
	movl	$19, %esi
	movl	$19, %ecx
	movq	%r13, %rdi
	leaq	832(%rsp), %r13
	movq	%r13, %rdx
	movq	%rbp, %r8
	movl	%ebx, %r9d
	callq	swap_conditional
	movl	$19, %esi
	movl	$19, %ecx
	movq	%r14, %rdi
	movq	%r12, %rdx
	movq	%r12, %r14
	movq	%rbp, %r8
	movl	%ebx, %r9d
	callq	swap_conditional
	subq	$8, %rsp
	.cfi_adjust_cfa_offset 8
	movl	$19, %esi
	movl	$19, %ecx
	movl	$19, %r9d
	leaq	40(%rsp), %r15
	movq	%r15, %rdi
	leaq	360(%rsp), %rdx
	leaq	520(%rsp), %r12
	movq	%r12, %r8
	pushq	%rbx
	.cfi_adjust_cfa_offset 8
	pushq	1400(%rsp)
	.cfi_adjust_cfa_offset 8
	pushq	1400(%rsp)
	.cfi_adjust_cfa_offset 8
	pushq	$19
	.cfi_adjust_cfa_offset 8
	pushq	%r14
	.cfi_adjust_cfa_offset 8
	pushq	$19
	.cfi_adjust_cfa_offset 8
	pushq	%r13
	.cfi_adjust_cfa_offset 8
	pushq	$19
	.cfi_adjust_cfa_offset 8
	leaq	264(%rsp), %rax
	pushq	%rax
	.cfi_adjust_cfa_offset 8
	pushq	$19
	.cfi_adjust_cfa_offset 8
	leaq	760(%rsp), %rax
	pushq	%rax
	.cfi_adjust_cfa_offset 8
	pushq	$19
	.cfi_adjust_cfa_offset 8
	leaq	1096(%rsp), %r13
	pushq	%r13
	.cfi_adjust_cfa_offset 8
	callq	fmonty
	addq	$112, %rsp
	.cfi_adjust_cfa_offset -112
	movl	$19, %esi
	movl	$19, %ecx
	movq	%r15, %rdi
	movq	%r12, %rdx
	movq	%rbp, %r8
	movl	%ebx, %r9d
	callq	swap_conditional
	movl	$19, %esi
	movl	$19, %ecx
	leaq	352(%rsp), %rdi
	movq	%rdi, %r14
	movq	%r13, %rdx
	movq	%rbp, %r8
	movl	%ebx, %r9d
	callq	swap_conditional
	movq	(%rsp), %rax            # 8-byte Reload
	addl	%eax, %eax
	movzbl	%al, %ecx
	movq	%rcx, (%rsp)            # 8-byte Spill
	movzbl	%al, %ebp
	shrq	$7, %rbp
	movl	$19, %esi
	movl	$19, %ecx
	movq	%r15, %rdi
	movq	%r12, %rdx
	movq	%rbp, %r8
	movl	%ebx, %r9d
	callq	swap_conditional
	movl	$19, %esi
	movl	$19, %ecx
	movq	%r14, %rdi
	movq	%r13, %rdx
	movq	%r13, %r14
	movq	%rbp, %r8
	movl	%ebx, %r9d
	callq	swap_conditional
	subq	$8, %rsp
	.cfi_adjust_cfa_offset 8
	movl	$19, %esi
	movl	$19, %ecx
	movl	$19, %r9d
	leaq	680(%rsp), %r13
	movq	%r13, %rdi
	leaq	200(%rsp), %rdx
	leaq	840(%rsp), %r15
	movq	%r15, %r8
	pushq	%rbx
	.cfi_adjust_cfa_offset 8
	movq	1400(%rsp), %rax
	pushq	%rax
	.cfi_adjust_cfa_offset 8
	movq	1400(%rsp), %rax
	pushq	%rax
	.cfi_adjust_cfa_offset 8
	pushq	$19
	.cfi_adjust_cfa_offset 8
	pushq	%r14
	.cfi_adjust_cfa_offset 8
	pushq	$19
	.cfi_adjust_cfa_offset 8
	pushq	%r12
	.cfi_adjust_cfa_offset 8
	pushq	$19
	.cfi_adjust_cfa_offset 8
	leaq	424(%rsp), %rax
	pushq	%rax
	.cfi_adjust_cfa_offset 8
	pushq	$19
	.cfi_adjust_cfa_offset 8
	leaq	120(%rsp), %rax
	pushq	%rax
	.cfi_adjust_cfa_offset 8
	pushq	$19
	.cfi_adjust_cfa_offset 8
	leaq	1256(%rsp), %r12
	pushq	%r12
	.cfi_adjust_cfa_offset 8
	callq	fmonty
	addq	$112, %rsp
	.cfi_adjust_cfa_offset -112
	movl	$19, %esi
	movl	$19, %ecx
	movq	%r13, %rdi
	movq	%r15, %rdx
	movq	%rbp, %r8
	movl	%ebx, %r9d
	callq	swap_conditional
	movl	$19, %esi
	movl	$19, %ecx
	leaq	192(%rsp), %rdi
	movq	%r12, %rdx
	movq	%rbp, %r8
	movl	%ebx, %r9d
	callq	swap_conditional
	movq	(%rsp), %r14            # 8-byte Reload
	leal	(%r14,%r14), %eax
	movzbl	%al, %ebp
	shrq	$7, %rbp
	movl	$19, %esi
	movl	$19, %ecx
	movq	%r13, %rdi
	movq	%r15, %rdx
	movq	%rbp, %r8
	movl	%ebx, %r9d
	callq	swap_conditional
	movl	$19, %esi
	movl	$19, %ecx
	leaq	192(%rsp), %rdi
	movq	%r12, %rdx
	movq	%r12, %r13
	movq	%rbp, %r8
	movl	%ebx, %r9d
	callq	swap_conditional
	subq	$8, %rsp
	.cfi_adjust_cfa_offset 8
	movl	$19, %esi
	movl	$19, %ecx
	movl	$19, %r9d
	leaq	40(%rsp), %r15
	movq	%r15, %rdi
	leaq	360(%rsp), %rdx
	leaq	520(%rsp), %r12
	movq	%r12, %r8
	pushq	%rbx
	.cfi_adjust_cfa_offset 8
	pushq	1400(%rsp)
	.cfi_adjust_cfa_offset 8
	pushq	1400(%rsp)
	.cfi_adjust_cfa_offset 8
	pushq	$19
	.cfi_adjust_cfa_offset 8
	pushq	%r13
	.cfi_adjust_cfa_offset 8
	pushq	$19
	.cfi_adjust_cfa_offset 8
	leaq	888(%rsp), %rax
	pushq	%rax
	.cfi_adjust_cfa_offset 8
	pushq	$19
	.cfi_adjust_cfa_offset 8
	leaq	264(%rsp), %rax
	pushq	%rax
	.cfi_adjust_cfa_offset 8
	pushq	$19
	.cfi_adjust_cfa_offset 8
	leaq	760(%rsp), %rax
	pushq	%rax
	.cfi_adjust_cfa_offset 8
	pushq	$19
	.cfi_adjust_cfa_offset 8
	leaq	1096(%rsp), %r13
	pushq	%r13
	.cfi_adjust_cfa_offset 8
	callq	fmonty
	addq	$112, %rsp
	.cfi_adjust_cfa_offset -112
	movl	$19, %esi
	movl	$19, %ecx
	movq	%r15, %rdi
	movq	%r12, %rdx
	movq	%rbp, %r8
	movl	%ebx, %r9d
	callq	swap_conditional
	movl	$19, %esi
	movl	$19, %ecx
	leaq	352(%rsp), %rdi
	movq	%r13, %rdx
	movq	%rbp, %r8
	movl	%ebx, %r9d
	callq	swap_conditional
	movq	%r14, %rcx
	shll	$2, %ecx
	movzbl	%cl, %eax
	movq	%rax, (%rsp)            # 8-byte Spill
	movzbl	%cl, %ebp
	shrq	$7, %rbp
	movl	$19, %esi
	movl	$19, %ecx
	movq	%r15, %rdi
	movq	%r12, %rdx
	movq	%rbp, %r8
	movl	%ebx, %r9d
	callq	swap_conditional
	movl	$19, %esi
	movl	$19, %ecx
	leaq	352(%rsp), %rdi
	movq	%rdi, %r14
	movq	%r13, %rdx
	movq	%r13, %r15
	movq	%rbp, %r8
	movl	%ebx, %r9d
	callq	swap_conditional
	subq	$8, %rsp
	.cfi_adjust_cfa_offset 8
	movl	$19, %esi
	movl	$19, %ecx
	movl	$19, %r9d
	leaq	680(%rsp), %r13
	movq	%r13, %rdi
	leaq	200(%rsp), %rdx
	leaq	840(%rsp), %r12
	movq	%r12, %r8
	pushq	%rbx
	.cfi_adjust_cfa_offset 8
	movq	1400(%rsp), %rax
	pushq	%rax
	.cfi_adjust_cfa_offset 8
	movq	1400(%rsp), %rax
	pushq	%rax
	.cfi_adjust_cfa_offset 8
	pushq	$19
	.cfi_adjust_cfa_offset 8
	pushq	%r15
	.cfi_adjust_cfa_offset 8
	pushq	$19
	.cfi_adjust_cfa_offset 8
	leaq	568(%rsp), %rax
	pushq	%rax
	.cfi_adjust_cfa_offset 8
	pushq	$19
	.cfi_adjust_cfa_offset 8
	pushq	%r14
	.cfi_adjust_cfa_offset 8
	pushq	$19
	.cfi_adjust_cfa_offset 8
	leaq	120(%rsp), %rax
	pushq	%rax
	.cfi_adjust_cfa_offset 8
	pushq	$19
	.cfi_adjust_cfa_offset 8
	leaq	1256(%rsp), %r14
	pushq	%r14
	.cfi_adjust_cfa_offset 8
	callq	fmonty
	addq	$112, %rsp
	.cfi_adjust_cfa_offset -112
	movl	$19, %esi
	movl	$19, %ecx
	movq	%r13, %rdi
	movq	%r12, %rdx
	movq	%rbp, %r8
	movl	%ebx, %r9d
	callq	swap_conditional
	movl	$19, %esi
	movl	$19, %ecx
	leaq	192(%rsp), %rdi
	movq	%rdi, %r15
	movq	%r14, %rdx
	movq	%rbp, %r8
	movl	%ebx, %r9d
	callq	swap_conditional
	movq	(%rsp), %rax            # 8-byte Reload
	addl	%eax, %eax
	movzbl	%al, %ebp
	shrq	$7, %rbp
	movl	$19, %esi
	movl	$19, %ecx
	movq	%r13, %rdi
	movq	%r12, %rdx
	movq	%rbp, %r8
	movl	%ebx, %r9d
	callq	swap_conditional
	movl	$19, %esi
	movl	$19, %ecx
	movq	%r15, %rdi
	movq	%r15, %r13
	movq	%r14, %rdx
	movq	%r14, %r15
	movq	%rbp, %r8
	movl	%ebx, %r9d
	callq	swap_conditional
	subq	$8, %rsp
	.cfi_adjust_cfa_offset 8
	movl	$19, %esi
	movl	$19, %ecx
	movl	$19, %r9d
	leaq	40(%rsp), %rdi
	leaq	360(%rsp), %r14
	movq	%r14, %rdx
	leaq	520(%rsp), %r12
	movq	%r12, %r8
	pushq	%rbx
	.cfi_adjust_cfa_offset 8
	movq	1400(%rsp), %rax
	pushq	%rax
	.cfi_adjust_cfa_offset 8
	movq	1400(%rsp), %rax
	pushq	%rax
	.cfi_adjust_cfa_offset 8
	pushq	$19
	.cfi_adjust_cfa_offset 8
	pushq	%r15
	.cfi_adjust_cfa_offset 8
	pushq	$19
	.cfi_adjust_cfa_offset 8
	leaq	888(%rsp), %rax
	pushq	%rax
	.cfi_adjust_cfa_offset 8
	pushq	$19
	.cfi_adjust_cfa_offset 8
	pushq	%r13
	.cfi_adjust_cfa_offset 8
	pushq	$19
	.cfi_adjust_cfa_offset 8
	leaq	760(%rsp), %rax
	pushq	%rax
	.cfi_adjust_cfa_offset 8
	pushq	$19
	.cfi_adjust_cfa_offset 8
	leaq	1096(%rsp), %r13
	pushq	%r13
	.cfi_adjust_cfa_offset 8
	callq	fmonty
	addq	$112, %rsp
	.cfi_adjust_cfa_offset -112
	movl	$19, %esi
	movl	$19, %ecx
	leaq	32(%rsp), %rdi
	movq	%r12, %rdx
	movq	%rbp, %r8
	movl	%ebx, %r9d
	callq	swap_conditional
	movl	$19, %esi
	movl	$19, %ecx
	movq	%r14, %rdi
	movq	%r13, %rdx
	movq	%rbp, %r8
	movl	%ebx, %r9d
	callq	swap_conditional
	movq	(%rsp), %rax            # 8-byte Reload
	shll	$2, %eax
	movzbl	%al, %ebp
	movq	%rbp, (%rsp)            # 8-byte Spill
	shrq	$7, %rbp
	movl	$19, %esi
	movl	$19, %ecx
	leaq	32(%rsp), %rdi
	movq	%r12, %rdx
	movq	%rbp, %r8
	movl	%ebx, %r9d
	callq	swap_conditional
	movl	$19, %esi
	movl	$19, %ecx
	movq	%r14, %rdi
	movq	%r14, %r15
	movq	%r13, %rdx
	movq	%r13, %r14
	movq	%rbp, %r8
	movl	%ebx, %r9d
	callq	swap_conditional
	subq	$8, %rsp
	.cfi_adjust_cfa_offset 8
	movl	$19, %esi
	movl	$19, %ecx
	movl	$19, %r9d
	leaq	680(%rsp), %r13
	movq	%r13, %rdi
	leaq	200(%rsp), %rdx
	leaq	840(%rsp), %r12
	movq	%r12, %r8
	pushq	%rbx
	.cfi_adjust_cfa_offset 8
	pushq	1400(%rsp)
	.cfi_adjust_cfa_offset 8
	pushq	1400(%rsp)
	.cfi_adjust_cfa_offset 8
	pushq	$19
	.cfi_adjust_cfa_offset 8
	pushq	%r14
	.cfi_adjust_cfa_offset 8
	pushq	$19
	.cfi_adjust_cfa_offset 8
	leaq	568(%rsp), %rax
	pushq	%rax
	.cfi_adjust_cfa_offset 8
	pushq	$19
	.cfi_adjust_cfa_offset 8
	pushq	%r15
	.cfi_adjust_cfa_offset 8
	pushq	$19
	.cfi_adjust_cfa_offset 8
	leaq	120(%rsp), %rax
	pushq	%rax
	.cfi_adjust_cfa_offset 8
	pushq	$19
	.cfi_adjust_cfa_offset 8
	leaq	1256(%rsp), %r15
	pushq	%r15
	.cfi_adjust_cfa_offset 8
	callq	fmonty
	addq	$112, %rsp
	.cfi_adjust_cfa_offset -112
	movl	$19, %esi
	movl	$19, %ecx
	movq	%r13, %rdi
	movq	%r12, %rdx
	movq	%rbp, %r8
	movl	%ebx, %r9d
	callq	swap_conditional
	movl	$19, %esi
	movl	$19, %ecx
	leaq	192(%rsp), %rdi
	movq	%r15, %rdx
	movq	%rbp, %r8
	movl	%ebx, %r9d
	callq	swap_conditional
	movq	(%rsp), %r14            # 8-byte Reload
	leal	(%r14,%r14), %eax
	movzbl	%al, %ebp
	shrq	$7, %rbp
	movl	$19, %esi
	movl	$19, %ecx
	movq	%r13, %rdi
	movq	%r12, %rdx
	movq	%rbp, %r8
	movl	%ebx, %r9d
	callq	swap_conditional
	movl	$19, %esi
	movl	$19, %ecx
	leaq	192(%rsp), %rdi
	movq	%r15, %rdx
	movq	%r15, %r13
	movq	%rbp, %r8
	movl	%ebx, %r9d
	callq	swap_conditional
	subq	$8, %rsp
	.cfi_adjust_cfa_offset 8
	movl	$19, %esi
	movl	$19, %ecx
	movl	$19, %r9d
	leaq	40(%rsp), %rdi
	movq	%rdi, %r15
	leaq	360(%rsp), %rdx
	leaq	520(%rsp), %r12
	movq	%r12, %r8
	pushq	%rbx
	.cfi_adjust_cfa_offset 8
	movq	1400(%rsp), %rax
	pushq	%rax
	.cfi_adjust_cfa_offset 8
	movq	1400(%rsp), %rax
	pushq	%rax
	.cfi_adjust_cfa_offset 8
	pushq	$19
	.cfi_adjust_cfa_offset 8
	pushq	%r13
	.cfi_adjust_cfa_offset 8
	pushq	$19
	.cfi_adjust_cfa_offset 8
	leaq	888(%rsp), %rax
	pushq	%rax
	.cfi_adjust_cfa_offset 8
	pushq	$19
	.cfi_adjust_cfa_offset 8
	leaq	264(%rsp), %rax
	pushq	%rax
	.cfi_adjust_cfa_offset 8
	pushq	$19
	.cfi_adjust_cfa_offset 8
	leaq	760(%rsp), %rax
	pushq	%rax
	.cfi_adjust_cfa_offset 8
	pushq	$19
	.cfi_adjust_cfa_offset 8
	leaq	1096(%rsp), %r13
	pushq	%r13
	.cfi_adjust_cfa_offset 8
	callq	fmonty
	addq	$112, %rsp
	.cfi_adjust_cfa_offset -112
	movl	$19, %esi
	movl	$19, %ecx
	movq	%r15, %rdi
	movq	%r12, %rdx
	movq	%rbp, %r8
	movl	%ebx, %r9d
	callq	swap_conditional
	movl	$19, %esi
	movl	$19, %ecx
	leaq	352(%rsp), %rdi
	movq	%r13, %rdx
	movq	%rbp, %r8
	movl	%ebx, %r9d
	callq	swap_conditional
	movq	%r14, %rax
	shll	$2, %eax
	movzbl	%al, %ebp
	shrq	$7, %rbp
	movl	$19, %esi
	movl	$19, %ecx
	movq	%r15, %rdi
	movq	%r12, %rdx
	movq	%rbp, %r8
	movl	%ebx, %r9d
	callq	swap_conditional
	movl	$19, %esi
	movl	$19, %ecx
	leaq	352(%rsp), %rdi
	movq	%rdi, %r14
	movq	%r13, %rdx
	movq	%rbp, %r8
	movl	%ebx, %r9d
	callq	swap_conditional
	subq	$8, %rsp
	.cfi_adjust_cfa_offset 8
	movl	$19, %esi
	movl	$19, %ecx
	movl	$19, %r9d
	leaq	680(%rsp), %r15
	movq	%r15, %rdi
	leaq	200(%rsp), %rdx
	leaq	840(%rsp), %r12
	movq	%r12, %r8
	pushq	%rbx
	.cfi_adjust_cfa_offset 8
	pushq	1400(%rsp)
	.cfi_adjust_cfa_offset 8
	pushq	1400(%rsp)
	.cfi_adjust_cfa_offset 8
	pushq	$19
	.cfi_adjust_cfa_offset 8
	pushq	%r13
	.cfi_adjust_cfa_offset 8
	pushq	$19
	.cfi_adjust_cfa_offset 8
	leaq	568(%rsp), %rax
	pushq	%rax
	.cfi_adjust_cfa_offset 8
	pushq	$19
	.cfi_adjust_cfa_offset 8
	pushq	%r14
	.cfi_adjust_cfa_offset 8
	pushq	$19
	.cfi_adjust_cfa_offset 8
	leaq	120(%rsp), %rax
	pushq	%rax
	.cfi_adjust_cfa_offset 8
	pushq	$19
	.cfi_adjust_cfa_offset 8
	leaq	1256(%rsp), %r14
	pushq	%r14
	.cfi_adjust_cfa_offset 8
	callq	fmonty
	addq	$112, %rsp
	.cfi_adjust_cfa_offset -112
	movl	$19, %esi
	movl	$19, %ecx
	movq	%r15, %rdi
	movq	%r15, %r13
	movq	%r12, %rdx
	movq	%r12, %r15
	movq	%rbp, %r8
	movl	%ebx, %r9d
	callq	swap_conditional
	movl	$19, %esi
	movl	$19, %ecx
	leaq	192(%rsp), %rdi
	movq	%rdi, %r12
	movq	%r14, %rdx
	movq	%rbp, %r8
	movl	%ebx, %r9d
	callq	swap_conditional
	movq	8(%rsp), %rax           # 8-byte Reload
	addq	$20, %rax
	cmpq	$20, 16(%rsp)           # 8-byte Folded Reload
	leaq	24(%rsp), %rcx
	cmovgq	%rax, %rcx
	cmpb	$0, 1392(%rsp)
	cmovneq	%rax, %rcx
	movzbl	(%rcx), %ebp
	movq	%rbp, (%rsp)            # 8-byte Spill
	shrq	$7, %rbp
	movl	$19, %esi
	movl	$19, %ecx
	movq	%r13, %rdi
	movq	%r15, %rdx
	movq	%rbp, %r8
	movl	%ebx, %r9d
	callq	swap_conditional
	movl	$19, %esi
	movl	$19, %ecx
	movq	%r12, %rdi
	movq	%r12, %r13
	movq	%r14, %rdx
	movq	%r14, %r12
	movq	%rbp, %r8
	movl	%ebx, %r9d
	callq	swap_conditional
	subq	$8, %rsp
	.cfi_adjust_cfa_offset 8
	movl	$19, %esi
	movl	$19, %ecx
	movl	$19, %r9d
	leaq	40(%rsp), %rdi
	leaq	360(%rsp), %r14
	movq	%r14, %rdx
	leaq	520(%rsp), %r15
	movq	%r15, %r8
	pushq	%rbx
	.cfi_adjust_cfa_offset 8
	pushq	1400(%rsp)
	.cfi_adjust_cfa_offset 8
	pushq	1400(%rsp)
	.cfi_adjust_cfa_offset 8
	pushq	$19
	.cfi_adjust_cfa_offset 8
	pushq	%r12
	.cfi_adjust_cfa_offset 8
	pushq	$19
	.cfi_adjust_cfa_offset 8
	leaq	888(%rsp), %rax
	pushq	%rax
	.cfi_adjust_cfa_offset 8
	pushq	$19
	.cfi_adjust_cfa_offset 8
	pushq	%r13
	.cfi_adjust_cfa_offset 8
	pushq	$19
	.cfi_adjust_cfa_offset 8
	leaq	760(%rsp), %rax
	pushq	%rax
	.cfi_adjust_cfa_offset 8
	pushq	$19
	.cfi_adjust_cfa_offset 8
	leaq	1096(%rsp), %r13
	pushq	%r13
	.cfi_adjust_cfa_offset 8
	callq	fmonty
	addq	$112, %rsp
	.cfi_adjust_cfa_offset -112
	movl	$19, %esi
	movl	$19, %ecx
	leaq	32(%rsp), %r12
	movq	%r12, %rdi
	movq	%r15, %rdx
	movq	%rbp, %r8
	movl	%ebx, %r9d
	callq	swap_conditional
	movl	$19, %esi
	movl	$19, %ecx
	movq	%r14, %rdi
	movq	%r13, %rdx
	movq	%r13, %r15
	movq	%rbp, %r8
	movl	%ebx, %r9d
	callq	swap_conditional
	movq	(%rsp), %rax            # 8-byte Reload
	addl	%eax, %eax
	movzbl	%al, %ecx
	movq	%rcx, (%rsp)            # 8-byte Spill
	movzbl	%al, %ebp
	shrq	$7, %rbp
	movl	$19, %esi
	movl	$19, %ecx
	movq	%r12, %rdi
	leaq	512(%rsp), %r13
	movq	%r13, %rdx
	movq	%rbp, %r8
	movl	%ebx, %r9d
	callq	swap_conditional
	movl	$19, %esi
	movl	$19, %ecx
	movq	%r14, %rdi
	movq	%r15, %rdx
	movq	%r15, %r14
	movq	%rbp, %r8
	movl	%ebx, %r9d
	callq	swap_conditional
	subq	$8, %rsp
	.cfi_adjust_cfa_offset 8
	movl	$19, %esi
	movl	$19, %ecx
	movl	$19, %r9d
	leaq	680(%rsp), %r15
	movq	%r15, %rdi
	leaq	200(%rsp), %rdx
	leaq	840(%rsp), %r12
	movq	%r12, %r8
	pushq	%rbx
	.cfi_adjust_cfa_offset 8
	movq	1400(%rsp), %rax
	pushq	%rax
	.cfi_adjust_cfa_offset 8
	movq	1400(%rsp), %rax
	pushq	%rax
	.cfi_adjust_cfa_offset 8
	pushq	$19
	.cfi_adjust_cfa_offset 8
	pushq	%r14
	.cfi_adjust_cfa_offset 8
	pushq	$19
	.cfi_adjust_cfa_offset 8
	pushq	%r13
	.cfi_adjust_cfa_offset 8
	pushq	$19
	.cfi_adjust_cfa_offset 8
	leaq	424(%rsp), %rax
	pushq	%rax
	.cfi_adjust_cfa_offset 8
	pushq	$19
	.cfi_adjust_cfa_offset 8
	leaq	120(%rsp), %rax
	pushq	%rax
	.cfi_adjust_cfa_offset 8
	pushq	$19
	.cfi_adjust_cfa_offset 8
	leaq	1256(%rsp), %r13
	pushq	%r13
	.cfi_adjust_cfa_offset 8
	callq	fmonty
	addq	$112, %rsp
	.cfi_adjust_cfa_offset -112
	movl	$19, %esi
	movl	$19, %ecx
	movq	%r15, %rdi
	movq	%r12, %rdx
	movq	%rbp, %r8
	movl	%ebx, %r9d
	callq	swap_conditional
	movl	$19, %esi
	movl	$19, %ecx
	leaq	192(%rsp), %rdi
	movq	%rdi, %r12
	movq	%r13, %rdx
	movq	%rbp, %r8
	movl	%ebx, %r9d
	callq	swap_conditional
	movq	(%rsp), %r14            # 8-byte Reload
	leal	(%r14,%r14), %eax
	movzbl	%al, %ebp
	shrq	$7, %rbp
	movl	$19, %esi
	movl	$19, %ecx
	movq	%r15, %rdi
	leaq	832(%rsp), %rdx
	movq	%rbp, %r8
	movl	%ebx, %r9d
	callq	swap_conditional
	movl	$19, %esi
	movl	$19, %ecx
	movq	%r12, %rdi
	movq	%r12, %r15
	movq	%r13, %rdx
	movq	%rbp, %r8
	movl	%ebx, %r9d
	callq	swap_conditional
	subq	$8, %rsp
	.cfi_adjust_cfa_offset 8
	movl	$19, %esi
	movl	$19, %ecx
	movl	$19, %r9d
	leaq	40(%rsp), %rdi
	leaq	360(%rsp), %rdx
	leaq	520(%rsp), %r12
	movq	%r12, %r8
	pushq	%rbx
	.cfi_adjust_cfa_offset 8
	pushq	1400(%rsp)
	.cfi_adjust_cfa_offset 8
	pushq	1400(%rsp)
	.cfi_adjust_cfa_offset 8
	pushq	$19
	.cfi_adjust_cfa_offset 8
	pushq	%r13
	.cfi_adjust_cfa_offset 8
	pushq	$19
	.cfi_adjust_cfa_offset 8
	leaq	888(%rsp), %rax
	pushq	%rax
	.cfi_adjust_cfa_offset 8
	pushq	$19
	.cfi_adjust_cfa_offset 8
	pushq	%r15
	.cfi_adjust_cfa_offset 8
	pushq	$19
	.cfi_adjust_cfa_offset 8
	leaq	760(%rsp), %rax
	pushq	%rax
	.cfi_adjust_cfa_offset 8
	pushq	$19
	.cfi_adjust_cfa_offset 8
	leaq	1096(%rsp), %r15
	pushq	%r15
	.cfi_adjust_cfa_offset 8
	callq	fmonty
	addq	$112, %rsp
	.cfi_adjust_cfa_offset -112
	movl	$19, %esi
	movl	$19, %ecx
	leaq	32(%rsp), %r13
	movq	%r13, %rdi
	movq	%r12, %rdx
	movq	%rbp, %r8
	movl	%ebx, %r9d
	callq	swap_conditional
	movl	$19, %esi
	movl	$19, %ecx
	leaq	352(%rsp), %rdi
	movq	%rdi, %r12
	movq	%r15, %rdx
	movq	%rbp, %r8
	movl	%ebx, %r9d
	callq	swap_conditional
	movq	%r14, %rcx
	shll	$2, %ecx
	movzbl	%cl, %eax
	movq	%rax, (%rsp)            # 8-byte Spill
	movzbl	%cl, %ebp
	shrq	$7, %rbp
	movl	$19, %esi
	movl	$19, %ecx
	movq	%r13, %rdi
	leaq	512(%rsp), %r15
	movq	%r15, %rdx
	movq	%rbp, %r8
	movl	%ebx, %r9d
	callq	swap_conditional
	movl	$19, %esi
	movl	$19, %ecx
	movq	%r12, %rdi
	leaq	992(%rsp), %rdx
	movq	%rdx, %r14
	movq	%rbp, %r8
	movl	%ebx, %r9d
	callq	swap_conditional
	subq	$8, %rsp
	.cfi_adjust_cfa_offset 8
	movl	$19, %esi
	movl	$19, %ecx
	movl	$19, %r9d
	leaq	680(%rsp), %r13
	movq	%r13, %rdi
	leaq	200(%rsp), %rdx
	leaq	840(%rsp), %r12
	movq	%r12, %r8
	pushq	%rbx
	.cfi_adjust_cfa_offset 8
	pushq	1400(%rsp)
	.cfi_adjust_cfa_offset 8
	pushq	1400(%rsp)
	.cfi_adjust_cfa_offset 8
	pushq	$19
	.cfi_adjust_cfa_offset 8
	pushq	%r14
	.cfi_adjust_cfa_offset 8
	pushq	$19
	.cfi_adjust_cfa_offset 8
	pushq	%r15
	.cfi_adjust_cfa_offset 8
	pushq	$19
	.cfi_adjust_cfa_offset 8
	leaq	424(%rsp), %rax
	pushq	%rax
	.cfi_adjust_cfa_offset 8
	pushq	$19
	.cfi_adjust_cfa_offset 8
	leaq	120(%rsp), %rax
	pushq	%rax
	.cfi_adjust_cfa_offset 8
	pushq	$19
	.cfi_adjust_cfa_offset 8
	leaq	1256(%rsp), %r14
	pushq	%r14
	.cfi_adjust_cfa_offset 8
	callq	fmonty
	addq	$112, %rsp
	.cfi_adjust_cfa_offset -112
	movl	$19, %esi
	movl	$19, %ecx
	movq	%r13, %rdi
	movq	%r12, %rdx
	movq	%rbp, %r8
	movl	%ebx, %r9d
	callq	swap_conditional
	movl	$19, %esi
	movl	$19, %ecx
	leaq	192(%rsp), %rdi
	movq	%rdi, %r15
	movq	%r14, %rdx
	movq	%rbp, %r8
	movl	%ebx, %r9d
	callq	swap_conditional
	movq	(%rsp), %rax            # 8-byte Reload
	addl	%eax, %eax
	movzbl	%al, %ebp
	shrq	$7, %rbp
	movl	$19, %esi
	movl	$19, %ecx
	movq	%r13, %rdi
	movq	%r12, %rdx
	movq	%rbp, %r8
	movl	%ebx, %r9d
	callq	swap_conditional
	movl	$19, %esi
	movl	$19, %ecx
	movq	%r15, %rdi
	movq	%r15, %r12
	movq	%r14, %rdx
	movq	%r14, %r15
	movq	%rbp, %r8
	movl	%ebx, %r9d
	callq	swap_conditional
	subq	$8, %rsp
	.cfi_adjust_cfa_offset 8
	movl	$19, %esi
	movl	$19, %ecx
	movl	$19, %r9d
	leaq	40(%rsp), %rdi
	leaq	360(%rsp), %r13
	movq	%r13, %rdx
	leaq	520(%rsp), %r14
	movq	%r14, %r8
	pushq	%rbx
	.cfi_adjust_cfa_offset 8
	movq	1400(%rsp), %rax
	pushq	%rax
	.cfi_adjust_cfa_offset 8
	movq	1400(%rsp), %rax
	pushq	%rax
	.cfi_adjust_cfa_offset 8
	pushq	$19
	.cfi_adjust_cfa_offset 8
	pushq	%r15
	.cfi_adjust_cfa_offset 8
	pushq	$19
	.cfi_adjust_cfa_offset 8
	leaq	888(%rsp), %rax
	pushq	%rax
	.cfi_adjust_cfa_offset 8
	pushq	$19
	.cfi_adjust_cfa_offset 8
	pushq	%r12
	.cfi_adjust_cfa_offset 8
	pushq	$19
	.cfi_adjust_cfa_offset 8
	leaq	760(%rsp), %rax
	pushq	%rax
	.cfi_adjust_cfa_offset 8
	pushq	$19
	.cfi_adjust_cfa_offset 8
	leaq	1096(%rsp), %r12
	pushq	%r12
	.cfi_adjust_cfa_offset 8
	callq	fmonty
	addq	$112, %rsp
	.cfi_adjust_cfa_offset -112
	movl	$19, %esi
	movl	$19, %ecx
	leaq	32(%rsp), %r15
	movq	%r15, %rdi
	movq	%r14, %rdx
	movq	%rbp, %r8
	movl	%ebx, %r9d
	callq	swap_conditional
	movl	$19, %esi
	movl	$19, %ecx
	movq	%r13, %rdi
	movq	%r12, %rdx
	movq	%rbp, %r8
	movl	%ebx, %r9d
	callq	swap_conditional
	movq	(%rsp), %rax            # 8-byte Reload
	shll	$2, %eax
	movzbl	%al, %ebp
	movq	%rbp, (%rsp)            # 8-byte Spill
	shrq	$7, %rbp
	movl	$19, %esi
	movl	$19, %ecx
	movq	%r15, %rdi
	movq	%r14, %rdx
	movq	%rbp, %r8
	movl	%ebx, %r9d
	callq	swap_conditional
	movl	$19, %esi
	movl	$19, %ecx
	movq	%r13, %rdi
	movq	%r12, %rdx
	movq	%r12, %r15
	movq	%rbp, %r8
	movl	%ebx, %r9d
	callq	swap_conditional
	subq	$8, %rsp
	.cfi_adjust_cfa_offset 8
	movl	$19, %esi
	movl	$19, %ecx
	movl	$19, %r9d
	leaq	680(%rsp), %r12
	movq	%r12, %rdi
	leaq	200(%rsp), %rdx
	leaq	840(%rsp), %r14
	movq	%r14, %r8
	pushq	%rbx
	.cfi_adjust_cfa_offset 8
	pushq	1400(%rsp)
	.cfi_adjust_cfa_offset 8
	pushq	1400(%rsp)
	.cfi_adjust_cfa_offset 8
	pushq	$19
	.cfi_adjust_cfa_offset 8
	pushq	%r15
	.cfi_adjust_cfa_offset 8
	pushq	$19
	.cfi_adjust_cfa_offset 8
	leaq	568(%rsp), %rax
	pushq	%rax
	.cfi_adjust_cfa_offset 8
	pushq	$19
	.cfi_adjust_cfa_offset 8
	pushq	%r13
	.cfi_adjust_cfa_offset 8
	pushq	$19
	.cfi_adjust_cfa_offset 8
	leaq	120(%rsp), %rax
	pushq	%rax
	.cfi_adjust_cfa_offset 8
	pushq	$19
	.cfi_adjust_cfa_offset 8
	leaq	1256(%rsp), %r15
	pushq	%r15
	.cfi_adjust_cfa_offset 8
	callq	fmonty
	addq	$112, %rsp
	.cfi_adjust_cfa_offset -112
	movl	$19, %esi
	movl	$19, %ecx
	movq	%r12, %rdi
	movq	%r14, %rdx
	movq	%r14, %r13
	movq	%rbp, %r8
	movl	%ebx, %r9d
	callq	swap_conditional
	movl	$19, %esi
	movl	$19, %ecx
	leaq	192(%rsp), %r14
	movq	%r14, %rdi
	movq	%r15, %rdx
	movq	%rbp, %r8
	movl	%ebx, %r9d
	callq	swap_conditional
	movq	(%rsp), %rax            # 8-byte Reload
	addl	%eax, %eax
	movzbl	%al, %ebp
	shrq	$7, %rbp
	movl	$19, %esi
	movl	$19, %ecx
	movq	%r12, %rdi
	movq	%r13, %rdx
	movq	%rbp, %r8
	movl	%ebx, %r9d
	callq	swap_conditional
	movl	$19, %esi
	movl	$19, %ecx
	movq	%r14, %rdi
	movq	%r14, %r12
	movq	%r15, %rdx
	movq	%r15, %r14
	movq	%rbp, %r8
	movl	%ebx, %r9d
	callq	swap_conditional
	subq	$8, %rsp
	.cfi_adjust_cfa_offset 8
	movl	$19, %esi
	movl	$19, %ecx
	movl	$19, %r9d
	leaq	40(%rsp), %rdi
	movq	%rdi, %r15
	leaq	360(%rsp), %rdx
	leaq	520(%rsp), %r13
	movq	%r13, %r8
	pushq	%rbx
	.cfi_adjust_cfa_offset 8
	pushq	1400(%rsp)
	.cfi_adjust_cfa_offset 8
	pushq	1400(%rsp)
	.cfi_adjust_cfa_offset 8
	pushq	$19
	.cfi_adjust_cfa_offset 8
	pushq	%r14
	.cfi_adjust_cfa_offset 8
	pushq	$19
	.cfi_adjust_cfa_offset 8
	leaq	888(%rsp), %rax
	pushq	%rax
	.cfi_adjust_cfa_offset 8
	pushq	$19
	.cfi_adjust_cfa_offset 8
	pushq	%r12
	.cfi_adjust_cfa_offset 8
	pushq	$19
	.cfi_adjust_cfa_offset 8
	leaq	760(%rsp), %rax
	pushq	%rax
	.cfi_adjust_cfa_offset 8
	pushq	$19
	.cfi_adjust_cfa_offset 8
	leaq	1096(%rsp), %r12
	pushq	%r12
	.cfi_adjust_cfa_offset 8
	callq	fmonty
	addq	$112, %rsp
	.cfi_adjust_cfa_offset -112
	movl	$19, %esi
	movl	$19, %ecx
	movq	%r15, %rdi
	movq	%r13, %rdx
	movq	%rbp, %r8
	movl	%ebx, %r9d
	callq	swap_conditional
	movl	$19, %esi
	movl	$19, %ecx
	leaq	352(%rsp), %rdi
	movq	%rdi, %r14
	movq	%r12, %rdx
	movq	%rbp, %r8
	movl	%ebx, %r9d
	callq	swap_conditional
	movq	(%rsp), %rax            # 8-byte Reload
	shll	$2, %eax
	movzbl	%al, %ebp
	shrq	$7, %rbp
	movl	$19, %esi
	movl	$19, %ecx
	movq	%r15, %rdi
	movq	%r13, %rdx
	movq	%rbp, %r8
	movl	%ebx, %r9d
	callq	swap_conditional
	movl	$19, %esi
	movl	$19, %ecx
	movq	%r14, %rdi
	movq	%r12, %rdx
	movq	%rbp, %r8
	movl	%ebx, %r9d
	callq	swap_conditional
	subq	$8, %rsp
	.cfi_adjust_cfa_offset 8
	movl	$19, %esi
	movl	$19, %ecx
	movl	$19, %r9d
	leaq	680(%rsp), %r15
	movq	%r15, %rdi
	leaq	200(%rsp), %r13
	movq	%r13, %rdx
	leaq	840(%rsp), %r8
	pushq	%rbx
	.cfi_adjust_cfa_offset 8
	movq	1400(%rsp), %rax
	pushq	%rax
	.cfi_adjust_cfa_offset 8
	movq	1400(%rsp), %rax
	pushq	%rax
	.cfi_adjust_cfa_offset 8
	pushq	$19
	.cfi_adjust_cfa_offset 8
	pushq	%r12
	.cfi_adjust_cfa_offset 8
	pushq	$19
	.cfi_adjust_cfa_offset 8
	leaq	568(%rsp), %rax
	pushq	%rax
	.cfi_adjust_cfa_offset 8
	pushq	$19
	.cfi_adjust_cfa_offset 8
	pushq	%r14
	.cfi_adjust_cfa_offset 8
	pushq	$19
	.cfi_adjust_cfa_offset 8
	leaq	120(%rsp), %rax
	pushq	%rax
	.cfi_adjust_cfa_offset 8
	pushq	$19
	.cfi_adjust_cfa_offset 8
	leaq	1256(%rsp), %r14
	pushq	%r14
	.cfi_adjust_cfa_offset 8
	callq	fmonty
	addq	$112, %rsp
	.cfi_adjust_cfa_offset -112
	movl	$19, %esi
	movl	$19, %ecx
	movq	%r15, %rdi
	movq	%r15, %r12
	leaq	832(%rsp), %r15
	movq	%r15, %rdx
	movq	%rbp, %r8
	movl	%ebx, %r9d
	callq	swap_conditional
	movl	$19, %esi
	movl	$19, %ecx
	movq	%r13, %rdi
	movq	%r14, %rdx
	movq	%rbp, %r8
	movl	%ebx, %r9d
	callq	swap_conditional
	movq	8(%rsp), %rax           # 8-byte Reload
	addq	$19, %rax
	cmpq	$19, 16(%rsp)           # 8-byte Folded Reload
	leaq	24(%rsp), %rcx
	cmovgq	%rax, %rcx
	cmpb	$0, 1392(%rsp)
	cmovneq	%rax, %rcx
	movzbl	(%rcx), %ebp
	movq	%rbp, (%rsp)            # 8-byte Spill
	shrq	$7, %rbp
	movl	$19, %esi
	movl	$19, %ecx
	movq	%r12, %rdi
	movq	%r15, %rdx
	movq	%rbp, %r8
	movl	%ebx, %r9d
	callq	swap_conditional
	movl	$19, %esi
	movl	$19, %ecx
	movq	%r13, %rdi
	movq	%r13, %r12
	movq	%r14, %rdx
	movq	%r14, %r15
	movq	%rbp, %r8
	movl	%ebx, %r9d
	callq	swap_conditional
	subq	$8, %rsp
	.cfi_adjust_cfa_offset 8
	movl	$19, %esi
	movl	$19, %ecx
	movl	$19, %r9d
	leaq	40(%rsp), %rdi
	leaq	360(%rsp), %r14
	movq	%r14, %rdx
	leaq	520(%rsp), %r13
	movq	%r13, %r8
	pushq	%rbx
	.cfi_adjust_cfa_offset 8
	movq	1400(%rsp), %rax
	pushq	%rax
	.cfi_adjust_cfa_offset 8
	pushq	1400(%rsp)
	.cfi_adjust_cfa_offset 8
	pushq	$19
	.cfi_adjust_cfa_offset 8
	pushq	%r15
	.cfi_adjust_cfa_offset 8
	pushq	$19
	.cfi_adjust_cfa_offset 8
	leaq	888(%rsp), %rax
	pushq	%rax
	.cfi_adjust_cfa_offset 8
	pushq	$19
	.cfi_adjust_cfa_offset 8
	pushq	%r12
	.cfi_adjust_cfa_offset 8
	pushq	$19
	.cfi_adjust_cfa_offset 8
	leaq	760(%rsp), %rax
	pushq	%rax
	.cfi_adjust_cfa_offset 8
	pushq	$19
	.cfi_adjust_cfa_offset 8
	leaq	1096(%rsp), %r12
	pushq	%r12
	.cfi_adjust_cfa_offset 8
	callq	fmonty
	addq	$112, %rsp
	.cfi_adjust_cfa_offset -112
	movl	$19, %esi
	movl	$19, %ecx
	leaq	32(%rsp), %r15
	movq	%r15, %rdi
	movq	%r13, %rdx
	movq	%rbp, %r8
	movl	%ebx, %r9d
	callq	swap_conditional
	movl	$19, %esi
	movl	$19, %ecx
	movq	%r14, %rdi
	movq	%r12, %rdx
	movq	%rbp, %r8
	movl	%ebx, %r9d
	callq	swap_conditional
	movq	(%rsp), %rax            # 8-byte Reload
	addl	%eax, %eax
	movzbl	%al, %ecx
	movq	%rcx, (%rsp)            # 8-byte Spill
	movzbl	%al, %ebp
	shrq	$7, %rbp
	movl	$19, %esi
	movl	$19, %ecx
	movq	%r15, %rdi
	movq	%r13, %r15
	movq	%r13, %rdx
	movq	%rbp, %r8
	movl	%ebx, %r9d
	callq	swap_conditional
	movl	$19, %esi
	movl	$19, %ecx
	movq	%r14, %rdi
	movq	%r12, %rdx
	movq	%r12, %r14
	movq	%rbp, %r8
	movl	%ebx, %r9d
	callq	swap_conditional
	subq	$8, %rsp
	.cfi_adjust_cfa_offset 8
	movl	$19, %esi
	movl	$19, %ecx
	movl	$19, %r9d
	leaq	680(%rsp), %r13
	movq	%r13, %rdi
	leaq	200(%rsp), %rdx
	leaq	840(%rsp), %r12
	movq	%r12, %r8
	pushq	%rbx
	.cfi_adjust_cfa_offset 8
	movq	1400(%rsp), %rax
	pushq	%rax
	.cfi_adjust_cfa_offset 8
	movq	1400(%rsp), %rax
	pushq	%rax
	.cfi_adjust_cfa_offset 8
	pushq	$19
	.cfi_adjust_cfa_offset 8
	pushq	%r14
	.cfi_adjust_cfa_offset 8
	pushq	$19
	.cfi_adjust_cfa_offset 8
	pushq	%r15
	.cfi_adjust_cfa_offset 8
	pushq	$19
	.cfi_adjust_cfa_offset 8
	leaq	424(%rsp), %rax
	pushq	%rax
	.cfi_adjust_cfa_offset 8
	pushq	$19
	.cfi_adjust_cfa_offset 8
	leaq	120(%rsp), %rax
	pushq	%rax
	.cfi_adjust_cfa_offset 8
	pushq	$19
	.cfi_adjust_cfa_offset 8
	leaq	1256(%rsp), %r15
	pushq	%r15
	.cfi_adjust_cfa_offset 8
	callq	fmonty
	addq	$112, %rsp
	.cfi_adjust_cfa_offset -112
	movl	$19, %esi
	movl	$19, %ecx
	movq	%r13, %rdi
	movq	%r12, %rdx
	movq	%r12, %r14
	movq	%rbp, %r8
	movl	%ebx, %r9d
	callq	swap_conditional
	movl	$19, %esi
	movl	$19, %ecx
	leaq	192(%rsp), %rdi
	movq	%rdi, %r12
	movq	%r15, %rdx
	movq	%rbp, %r8
	movl	%ebx, %r9d
	callq	swap_conditional
	movq	(%rsp), %rax            # 8-byte Reload
	addl	%eax, %eax
	movzbl	%al, %ebp
	shrq	$7, %rbp
	movl	$19, %esi
	movl	$19, %ecx
	movq	%r13, %rdi
	movq	%r14, %r13
	movq	%r14, %rdx
	movq	%rbp, %r8
	movl	%ebx, %r9d
	callq	swap_conditional
	movl	$19, %esi
	movl	$19, %ecx
	movq	%r12, %rdi
	movq	%r15, %rdx
	movq	%r15, %r14
	movq	%rbp, %r8
	movl	%ebx, %r9d
	callq	swap_conditional
	subq	$8, %rsp
	.cfi_adjust_cfa_offset 8
	movl	$19, %esi
	movl	$19, %ecx
	movl	$19, %r9d
	leaq	40(%rsp), %rdi
	leaq	360(%rsp), %rdx
	leaq	520(%rsp), %r15
	movq	%r15, %r8
	pushq	%rbx
	.cfi_adjust_cfa_offset 8
	pushq	1400(%rsp)
	.cfi_adjust_cfa_offset 8
	pushq	1400(%rsp)
	.cfi_adjust_cfa_offset 8
	pushq	$19
	.cfi_adjust_cfa_offset 8
	pushq	%r14
	.cfi_adjust_cfa_offset 8
	pushq	$19
	.cfi_adjust_cfa_offset 8
	pushq	%r13
	.cfi_adjust_cfa_offset 8
	pushq	$19
	.cfi_adjust_cfa_offset 8
	pushq	%r12
	.cfi_adjust_cfa_offset 8
	pushq	$19
	.cfi_adjust_cfa_offset 8
	leaq	760(%rsp), %rax
	pushq	%rax
	.cfi_adjust_cfa_offset 8
	pushq	$19
	.cfi_adjust_cfa_offset 8
	leaq	1096(%rsp), %r13
	pushq	%r13
	.cfi_adjust_cfa_offset 8
	callq	fmonty
	addq	$112, %rsp
	.cfi_adjust_cfa_offset -112
	movl	$19, %esi
	movl	$19, %ecx
	leaq	32(%rsp), %r14
	movq	%r14, %rdi
	movq	%r15, %rdx
	movq	%r15, %r12
	movq	%rbp, %r8
	movl	%ebx, %r9d
	callq	swap_conditional
	movl	$19, %esi
	movl	$19, %ecx
	leaq	352(%rsp), %rdi
	movq	%rdi, %r15
	movq	%r13, %rdx
	movq	%rbp, %r8
	movl	%ebx, %r9d
	callq	swap_conditional
	movq	(%rsp), %rcx            # 8-byte Reload
	shll	$2, %ecx
	movzbl	%cl, %eax
	movq	%rax, (%rsp)            # 8-byte Spill
	movzbl	%cl, %ebp
	shrq	$7, %rbp
	movl	$19, %esi
	movl	$19, %ecx
	movq	%r14, %rdi
	movq	%r12, %rdx
	movq	%rbp, %r8
	movl	%ebx, %r9d
	callq	swap_conditional
	movl	$19, %esi
	movl	$19, %ecx
	movq	%r15, %rdi
	movq	%r13, %rdx
	movq	%r13, %r15
	movq	%rbp, %r8
	movl	%ebx, %r9d
	callq	swap_conditional
	subq	$8, %rsp
	.cfi_adjust_cfa_offset 8
	movl	$19, %esi
	movl	$19, %ecx
	movl	$19, %r9d
	leaq	680(%rsp), %r14
	movq	%r14, %rdi
	leaq	200(%rsp), %rdx
	leaq	840(%rsp), %r13
	movq	%r13, %r8
	pushq	%rbx
	.cfi_adjust_cfa_offset 8
	movq	1400(%rsp), %rax
	pushq	%rax
	.cfi_adjust_cfa_offset 8
	movq	1400(%rsp), %rax
	pushq	%rax
	.cfi_adjust_cfa_offset 8
	pushq	$19
	.cfi_adjust_cfa_offset 8
	pushq	%r15
	.cfi_adjust_cfa_offset 8
	pushq	$19
	.cfi_adjust_cfa_offset 8
	pushq	%r12
	.cfi_adjust_cfa_offset 8
	pushq	$19
	.cfi_adjust_cfa_offset 8
	leaq	424(%rsp), %rax
	pushq	%rax
	.cfi_adjust_cfa_offset 8
	pushq	$19
	.cfi_adjust_cfa_offset 8
	leaq	120(%rsp), %rax
	pushq	%rax
	.cfi_adjust_cfa_offset 8
	pushq	$19
	.cfi_adjust_cfa_offset 8
	leaq	1256(%rsp), %r12
	pushq	%r12
	.cfi_adjust_cfa_offset 8
	callq	fmonty
	addq	$112, %rsp
	.cfi_adjust_cfa_offset -112
	movl	$19, %esi
	movl	$19, %ecx
	movq	%r14, %rdi
	movq	%r13, %rdx
	movq	%r13, %r15
	movq	%rbp, %r8
	movl	%ebx, %r9d
	callq	swap_conditional
	movl	$19, %esi
	movl	$19, %ecx
	leaq	192(%rsp), %rdi
	movq	%rdi, %r13
	movq	%r12, %rdx
	movq	%rbp, %r8
	movl	%ebx, %r9d
	callq	swap_conditional
	movq	(%rsp), %rax            # 8-byte Reload
	addl	%eax, %eax
	movzbl	%al, %ebp
	shrq	$7, %rbp
	movl	$19, %esi
	movl	$19, %ecx
	movq	%r14, %rdi
	movq	%r15, %rdx
	movq	%rbp, %r8
	movl	%ebx, %r9d
	callq	swap_conditional
	movl	$19, %esi
	movl	$19, %ecx
	movq	%r13, %rdi
	movq	%r12, %rdx
	movq	%r12, %r14
	movq	%rbp, %r8
	movl	%ebx, %r9d
	callq	swap_conditional
	subq	$8, %rsp
	.cfi_adjust_cfa_offset 8
	movl	$19, %esi
	movl	$19, %ecx
	movl	$19, %r9d
	leaq	40(%rsp), %r12
	movq	%r12, %rdi
	leaq	360(%rsp), %r13
	movq	%r13, %rdx
	leaq	520(%rsp), %r15
	movq	%r15, %r8
	pushq	%rbx
	.cfi_adjust_cfa_offset 8
	movq	1400(%rsp), %rax
	pushq	%rax
	.cfi_adjust_cfa_offset 8
	movq	1400(%rsp), %rax
	pushq	%rax
	.cfi_adjust_cfa_offset 8
	pushq	$19
	.cfi_adjust_cfa_offset 8
	pushq	%r14
	.cfi_adjust_cfa_offset 8
	pushq	$19
	.cfi_adjust_cfa_offset 8
	leaq	888(%rsp), %rax
	pushq	%rax
	.cfi_adjust_cfa_offset 8
	pushq	$19
	.cfi_adjust_cfa_offset 8
	leaq	264(%rsp), %rax
	pushq	%rax
	.cfi_adjust_cfa_offset 8
	pushq	$19
	.cfi_adjust_cfa_offset 8
	leaq	760(%rsp), %rax
	pushq	%rax
	.cfi_adjust_cfa_offset 8
	pushq	$19
	.cfi_adjust_cfa_offset 8
	leaq	1096(%rsp), %r14
	pushq	%r14
	.cfi_adjust_cfa_offset 8
	callq	fmonty
	addq	$112, %rsp
	.cfi_adjust_cfa_offset -112
	movl	$19, %esi
	movl	$19, %ecx
	movq	%r12, %rdi
	movq	%r15, %rdx
	movq	%rbp, %r8
	movl	%ebx, %r9d
	callq	swap_conditional
	movl	$19, %esi
	movl	$19, %ecx
	movq	%r13, %rdi
	movq	%r14, %rdx
	movq	%r14, %r15
	movq	%rbp, %r8
	movl	%ebx, %r9d
	callq	swap_conditional
	movq	(%rsp), %rax            # 8-byte Reload
	shll	$2, %eax
	movzbl	%al, %r14d
	movq	%r14, %rbp
	shrq	$7, %rbp
	movl	$19, %esi
	movl	$19, %ecx
	movq	%r12, %rdi
	leaq	512(%rsp), %rdx
	movq	%rbp, %r8
	movl	%ebx, %r9d
	callq	swap_conditional
	movl	$19, %esi
	movl	$19, %ecx
	movq	%r13, %rdi
	movq	%r15, %rdx
	movq	%rbp, %r8
	movl	%ebx, %r9d
	callq	swap_conditional
	subq	$8, %rsp
	.cfi_adjust_cfa_offset 8
	movl	$19, %esi
	movl	$19, %ecx
	movl	$19, %r9d
	leaq	680(%rsp), %r13
	movq	%r13, %rdi
	leaq	200(%rsp), %rdx
	leaq	840(%rsp), %r12
	movq	%r12, %r8
	pushq	%rbx
	.cfi_adjust_cfa_offset 8
	pushq	1400(%rsp)
	.cfi_adjust_cfa_offset 8
	pushq	1400(%rsp)
	.cfi_adjust_cfa_offset 8
	pushq	$19
	.cfi_adjust_cfa_offset 8
	pushq	%r15
	.cfi_adjust_cfa_offset 8
	pushq	$19
	.cfi_adjust_cfa_offset 8
	leaq	568(%rsp), %rax
	pushq	%rax
	.cfi_adjust_cfa_offset 8
	pushq	$19
	.cfi_adjust_cfa_offset 8
	leaq	424(%rsp), %rax
	pushq	%rax
	.cfi_adjust_cfa_offset 8
	pushq	$19
	.cfi_adjust_cfa_offset 8
	leaq	120(%rsp), %rax
	pushq	%rax
	.cfi_adjust_cfa_offset 8
	pushq	$19
	.cfi_adjust_cfa_offset 8
	leaq	1256(%rsp), %r15
	pushq	%r15
	.cfi_adjust_cfa_offset 8
	callq	fmonty
	addq	$112, %rsp
	.cfi_adjust_cfa_offset -112
	movl	$19, %esi
	movl	$19, %ecx
	movq	%r13, %rdi
	movq	%r12, %rdx
	movq	%rbp, %r8
	movl	%ebx, %r9d
	callq	swap_conditional
	movl	$19, %esi
	movl	$19, %ecx
	leaq	192(%rsp), %rdi
	movq	%rdi, %r12
	movq	%r15, %rdx
	movq	%rbp, %r8
	movl	%ebx, %r9d
	callq	swap_conditional
	leal	(%r14,%r14), %eax
	movzbl	%al, %ebp
	shrq	$7, %rbp
	movl	$19, %esi
	movl	$19, %ecx
	movq	%r13, %rdi
	leaq	832(%rsp), %rdx
	movq	%rbp, %r8
	movl	%ebx, %r9d
	callq	swap_conditional
	movl	$19, %esi
	movl	$19, %ecx
	movq	%r12, %rdi
	movq	%r15, %rdx
	movq	%r15, %r12
	movq	%rbp, %r8
	movl	%ebx, %r9d
	callq	swap_conditional
	subq	$8, %rsp
	.cfi_adjust_cfa_offset 8
	movl	$19, %esi
	movl	$19, %ecx
	movl	$19, %r9d
	leaq	40(%rsp), %r13
	movq	%r13, %rdi
	leaq	360(%rsp), %rdx
	leaq	520(%rsp), %r15
	movq	%r15, %r8
	pushq	%rbx
	.cfi_adjust_cfa_offset 8
	pushq	1400(%rsp)
	.cfi_adjust_cfa_offset 8
	pushq	1400(%rsp)
	.cfi_adjust_cfa_offset 8
	pushq	$19
	.cfi_adjust_cfa_offset 8
	pushq	%r12
	.cfi_adjust_cfa_offset 8
	pushq	$19
	.cfi_adjust_cfa_offset 8
	leaq	888(%rsp), %rax
	pushq	%rax
	.cfi_adjust_cfa_offset 8
	pushq	$19
	.cfi_adjust_cfa_offset 8
	leaq	264(%rsp), %rax
	pushq	%rax
	.cfi_adjust_cfa_offset 8
	pushq	$19
	.cfi_adjust_cfa_offset 8
	leaq	760(%rsp), %rax
	pushq	%rax
	.cfi_adjust_cfa_offset 8
	pushq	$19
	.cfi_adjust_cfa_offset 8
	leaq	1096(%rsp), %r12
	pushq	%r12
	.cfi_adjust_cfa_offset 8
	callq	fmonty
	addq	$112, %rsp
	.cfi_adjust_cfa_offset -112
	movl	$19, %esi
	movl	$19, %ecx
	movq	%r13, %rdi
	movq	%r15, %rdx
	movq	%rbp, %r8
	movl	%ebx, %r9d
	callq	swap_conditional
	movl	$19, %esi
	movl	$19, %ecx
	leaq	352(%rsp), %rdi
	movq	%rdi, %r13
	movq	%r12, %rdx
	movq	%rbp, %r8
	movl	%ebx, %r9d
	callq	swap_conditional
	shll	$2, %r14d
	movzbl	%r14b, %ebp
	shrq	$7, %rbp
	movl	$19, %esi
	movl	$19, %ecx
	leaq	32(%rsp), %rdi
	movq	%r15, %rdx
	movq	%rbp, %r8
	movl	%ebx, %r9d
	callq	swap_conditional
	movl	$19, %esi
	movl	$19, %ecx
	movq	%r13, %rdi
	movq	%r13, %r14
	movq	%r12, %rdx
	movq	%rbp, %r8
	movl	%ebx, %r9d
	callq	swap_conditional
	subq	$8, %rsp
	.cfi_adjust_cfa_offset 8
	movl	$19, %esi
	movl	$19, %ecx
	movl	$19, %r9d
	leaq	680(%rsp), %r13
	movq	%r13, %rdi
	leaq	200(%rsp), %rdx
	leaq	840(%rsp), %r8
	pushq	%rbx
	.cfi_adjust_cfa_offset 8
	pushq	1400(%rsp)
	.cfi_adjust_cfa_offset 8
	pushq	1400(%rsp)
	.cfi_adjust_cfa_offset 8
	pushq	$19
	.cfi_adjust_cfa_offset 8
	pushq	%r12
	.cfi_adjust_cfa_offset 8
	pushq	$19
	.cfi_adjust_cfa_offset 8
	pushq	%r15
	.cfi_adjust_cfa_offset 8
	pushq	$19
	.cfi_adjust_cfa_offset 8
	pushq	%r14
	.cfi_adjust_cfa_offset 8
	pushq	$19
	.cfi_adjust_cfa_offset 8
	leaq	120(%rsp), %rax
	pushq	%rax
	.cfi_adjust_cfa_offset 8
	pushq	$19
	.cfi_adjust_cfa_offset 8
	leaq	1256(%rsp), %r14
	pushq	%r14
	.cfi_adjust_cfa_offset 8
	callq	fmonty
	addq	$112, %rsp
	.cfi_adjust_cfa_offset -112
	movl	$19, %esi
	movl	$19, %ecx
	movq	%r13, %rdi
	movq	%r13, %r15
	leaq	832(%rsp), %rdx
	movq	%rdx, %r13
	movq	%rbp, %r8
	movl	%ebx, %r9d
	callq	swap_conditional
	movl	$19, %esi
	movl	$19, %ecx
	leaq	192(%rsp), %rdi
	movq	%rdi, %r12
	movq	%r14, %rdx
	movq	%rbp, %r8
	movl	%ebx, %r9d
	callq	swap_conditional
	movq	8(%rsp), %rax           # 8-byte Reload
	addq	$18, %rax
	cmpq	$18, 16(%rsp)           # 8-byte Folded Reload
	leaq	24(%rsp), %rcx
	cmovgq	%rax, %rcx
	cmpb	$0, 1392(%rsp)
	cmovneq	%rax, %rcx
	movzbl	(%rcx), %ebp
	movq	%rbp, (%rsp)            # 8-byte Spill
	shrq	$7, %rbp
	movl	$19, %esi
	movl	$19, %ecx
	movq	%r15, %rdi
	movq	%r13, %rdx
	movq	%rbp, %r8
	movl	%ebx, %r9d
	callq	swap_conditional
	movl	$19, %esi
	movl	$19, %ecx
	movq	%r12, %rdi
	movq	%r14, %rdx
	movq	%rbp, %r8
	movl	%ebx, %r9d
	callq	swap_conditional
	subq	$8, %rsp
	.cfi_adjust_cfa_offset 8
	movl	$19, %esi
	movl	$19, %ecx
	movl	$19, %r9d
	leaq	40(%rsp), %r13
	movq	%r13, %rdi
	leaq	360(%rsp), %rdx
	leaq	520(%rsp), %r15
	movq	%r15, %r8
	pushq	%rbx
	.cfi_adjust_cfa_offset 8
	movq	1400(%rsp), %rax
	pushq	%rax
	.cfi_adjust_cfa_offset 8
	movq	1400(%rsp), %rax
	pushq	%rax
	.cfi_adjust_cfa_offset 8
	pushq	$19
	.cfi_adjust_cfa_offset 8
	pushq	%r14
	.cfi_adjust_cfa_offset 8
	pushq	$19
	.cfi_adjust_cfa_offset 8
	leaq	888(%rsp), %rax
	pushq	%rax
	.cfi_adjust_cfa_offset 8
	pushq	$19
	.cfi_adjust_cfa_offset 8
	pushq	%r12
	.cfi_adjust_cfa_offset 8
	pushq	$19
	.cfi_adjust_cfa_offset 8
	leaq	760(%rsp), %rax
	pushq	%rax
	.cfi_adjust_cfa_offset 8
	pushq	$19
	.cfi_adjust_cfa_offset 8
	leaq	1096(%rsp), %r12
	pushq	%r12
	.cfi_adjust_cfa_offset 8
	callq	fmonty
	addq	$112, %rsp
	.cfi_adjust_cfa_offset -112
	movl	$19, %esi
	movl	$19, %ecx
	movq	%r13, %rdi
	movq	%r15, %rdx
	movq	%rbp, %r8
	movl	%ebx, %r9d
	callq	swap_conditional
	movl	$19, %esi
	movl	$19, %ecx
	leaq	352(%rsp), %rdi
	movq	%rdi, %r13
	movq	%r12, %rdx
	movq	%rbp, %r8
	movl	%ebx, %r9d
	callq	swap_conditional
	movq	(%rsp), %rax            # 8-byte Reload
	addl	%eax, %eax
	movzbl	%al, %r14d
	movq	%r14, (%rsp)            # 8-byte Spill
	movzbl	%al, %ebp
	shrq	$7, %rbp
	movl	$19, %esi
	movl	$19, %ecx
	leaq	32(%rsp), %rdi
	movq	%r15, %rdx
	movq	%rbp, %r8
	movl	%ebx, %r9d
	callq	swap_conditional
	movl	$19, %esi
	movl	$19, %ecx
	movq	%r13, %rdi
	movq	%r12, %rdx
	movq	%r12, %r15
	movq	%rbp, %r8
	movl	%ebx, %r9d
	callq	swap_conditional
	subq	$8, %rsp
	.cfi_adjust_cfa_offset 8
	movl	$19, %esi
	movl	$19, %ecx
	movl	$19, %r9d
	leaq	680(%rsp), %r13
	movq	%r13, %rdi
	leaq	200(%rsp), %rdx
	leaq	840(%rsp), %r12
	movq	%r12, %r8
	pushq	%rbx
	.cfi_adjust_cfa_offset 8
	pushq	1400(%rsp)
	.cfi_adjust_cfa_offset 8
	pushq	1400(%rsp)
	.cfi_adjust_cfa_offset 8
	pushq	$19
	.cfi_adjust_cfa_offset 8
	pushq	%r15
	.cfi_adjust_cfa_offset 8
	pushq	$19
	.cfi_adjust_cfa_offset 8
	leaq	568(%rsp), %rax
	pushq	%rax
	.cfi_adjust_cfa_offset 8
	pushq	$19
	.cfi_adjust_cfa_offset 8
	leaq	424(%rsp), %rax
	pushq	%rax
	.cfi_adjust_cfa_offset 8
	pushq	$19
	.cfi_adjust_cfa_offset 8
	leaq	120(%rsp), %rax
	pushq	%rax
	.cfi_adjust_cfa_offset 8
	pushq	$19
	.cfi_adjust_cfa_offset 8
	leaq	1256(%rsp), %r15
	pushq	%r15
	.cfi_adjust_cfa_offset 8
	callq	fmonty
	addq	$112, %rsp
	.cfi_adjust_cfa_offset -112
	movl	$19, %esi
	movl	$19, %ecx
	movq	%r13, %rdi
	movq	%r12, %rdx
	movq	%rbp, %r8
	movl	%ebx, %r9d
	callq	swap_conditional
	movl	$19, %esi
	movl	$19, %ecx
	leaq	192(%rsp), %rdi
	movq	%rdi, %r12
	movq	%r15, %rdx
	movq	%rbp, %r8
	movl	%ebx, %r9d
	callq	swap_conditional
	leal	(%r14,%r14), %eax
	movzbl	%al, %ebp
	shrq	$7, %rbp
	movl	$19, %esi
	movl	$19, %ecx
	movq	%r13, %rdi
	leaq	832(%rsp), %r14
	movq	%r14, %rdx
	movq	%rbp, %r8
	movl	%ebx, %r9d
	callq	swap_conditional
	movl	$19, %esi
	movl	$19, %ecx
	movq	%r12, %rdi
	movq	%r15, %rdx
	movq	%r15, %r12
	movq	%rbp, %r8
	movl	%ebx, %r9d
	callq	swap_conditional
	subq	$8, %rsp
	.cfi_adjust_cfa_offset 8
	movl	$19, %esi
	movl	$19, %ecx
	movl	$19, %r9d
	leaq	40(%rsp), %r13
	movq	%r13, %rdi
	leaq	360(%rsp), %rdx
	leaq	520(%rsp), %r15
	movq	%r15, %r8
	pushq	%rbx
	.cfi_adjust_cfa_offset 8
	pushq	1400(%rsp)
	.cfi_adjust_cfa_offset 8
	pushq	1400(%rsp)
	.cfi_adjust_cfa_offset 8
	pushq	$19
	.cfi_adjust_cfa_offset 8
	pushq	%r12
	.cfi_adjust_cfa_offset 8
	pushq	$19
	.cfi_adjust_cfa_offset 8
	pushq	%r14
	.cfi_adjust_cfa_offset 8
	pushq	$19
	.cfi_adjust_cfa_offset 8
	leaq	264(%rsp), %rax
	pushq	%rax
	.cfi_adjust_cfa_offset 8
	pushq	$19
	.cfi_adjust_cfa_offset 8
	leaq	760(%rsp), %rax
	pushq	%rax
	.cfi_adjust_cfa_offset 8
	pushq	$19
	.cfi_adjust_cfa_offset 8
	leaq	1096(%rsp), %r12
	pushq	%r12
	.cfi_adjust_cfa_offset 8
	callq	fmonty
	addq	$112, %rsp
	.cfi_adjust_cfa_offset -112
	movl	$19, %esi
	movl	$19, %ecx
	movq	%r13, %rdi
	movq	%r15, %rdx
	movq	%rbp, %r8
	movl	%ebx, %r9d
	callq	swap_conditional
	movl	$19, %esi
	movl	$19, %ecx
	leaq	352(%rsp), %rdi
	movq	%rdi, %r14
	movq	%r12, %rdx
	movq	%rbp, %r8
	movl	%ebx, %r9d
	callq	swap_conditional
	movq	(%rsp), %rax            # 8-byte Reload
	shll	$2, %eax
	movzbl	%al, %ecx
	movq	%rcx, (%rsp)            # 8-byte Spill
	movzbl	%al, %ebp
	shrq	$7, %rbp
	movl	$19, %esi
	movl	$19, %ecx
	movq	%r13, %rdi
	movq	%r15, %rdx
	movq	%rbp, %r8
	movl	%ebx, %r9d
	callq	swap_conditional
	movl	$19, %esi
	movl	$19, %ecx
	movq	%r14, %rdi
	movq	%r12, %rdx
	movq	%r12, %r14
	movq	%rbp, %r8
	movl	%ebx, %r9d
	callq	swap_conditional
	subq	$8, %rsp
	.cfi_adjust_cfa_offset 8
	movl	$19, %esi
	movl	$19, %ecx
	movl	$19, %r9d
	leaq	680(%rsp), %r12
	movq	%r12, %rdi
	leaq	200(%rsp), %r13
	movq	%r13, %rdx
	leaq	840(%rsp), %r15
	movq	%r15, %r8
	pushq	%rbx
	.cfi_adjust_cfa_offset 8
	movq	1400(%rsp), %rax
	pushq	%rax
	.cfi_adjust_cfa_offset 8
	movq	1400(%rsp), %rax
	pushq	%rax
	.cfi_adjust_cfa_offset 8
	pushq	$19
	.cfi_adjust_cfa_offset 8
	pushq	%r14
	.cfi_adjust_cfa_offset 8
	pushq	$19
	.cfi_adjust_cfa_offset 8
	leaq	568(%rsp), %rax
	pushq	%rax
	.cfi_adjust_cfa_offset 8
	pushq	$19
	.cfi_adjust_cfa_offset 8
	leaq	424(%rsp), %rax
	pushq	%rax
	.cfi_adjust_cfa_offset 8
	pushq	$19
	.cfi_adjust_cfa_offset 8
	leaq	120(%rsp), %rax
	pushq	%rax
	.cfi_adjust_cfa_offset 8
	pushq	$19
	.cfi_adjust_cfa_offset 8
	leaq	1256(%rsp), %r14
	pushq	%r14
	.cfi_adjust_cfa_offset 8
	callq	fmonty
	addq	$112, %rsp
	.cfi_adjust_cfa_offset -112
	movl	$19, %esi
	movl	$19, %ecx
	movq	%r12, %rdi
	movq	%r15, %rdx
	movq	%rbp, %r8
	movl	%ebx, %r9d
	callq	swap_conditional
	movl	$19, %esi
	movl	$19, %ecx
	movq	%r13, %rdi
	movq	%r14, %rdx
	movq	%rbp, %r8
	movl	%ebx, %r9d
	callq	swap_conditional
	movq	(%rsp), %rax            # 8-byte Reload
	addl	%eax, %eax
	movzbl	%al, %ebp
	shrq	$7, %rbp
	movl	$19, %esi
	movl	$19, %ecx
	movq	%r12, %rdi
	movq	%r15, %rdx
	movq	%rbp, %r8
	movl	%ebx, %r9d
	callq	swap_conditional
	movl	$19, %esi
	movl	$19, %ecx
	movq	%r13, %rdi
	movq	%r14, %rdx
	movq	%rbp, %r8
	movl	%ebx, %r9d
	callq	swap_conditional
	subq	$8, %rsp
	.cfi_adjust_cfa_offset 8
	movl	$19, %esi
	movl	$19, %ecx
	movl	$19, %r9d
	leaq	40(%rsp), %rdi
	leaq	360(%rsp), %r15
	movq	%r15, %rdx
	leaq	520(%rsp), %r12
	movq	%r12, %r8
	pushq	%rbx
	.cfi_adjust_cfa_offset 8
	movq	1400(%rsp), %rax
	pushq	%rax
	.cfi_adjust_cfa_offset 8
	movq	1400(%rsp), %rax
	pushq	%rax
	.cfi_adjust_cfa_offset 8
	pushq	$19
	.cfi_adjust_cfa_offset 8
	pushq	%r14
	.cfi_adjust_cfa_offset 8
	pushq	$19
	.cfi_adjust_cfa_offset 8
	leaq	888(%rsp), %rax
	pushq	%rax
	.cfi_adjust_cfa_offset 8
	pushq	$19
	.cfi_adjust_cfa_offset 8
	pushq	%r13
	.cfi_adjust_cfa_offset 8
	pushq	$19
	.cfi_adjust_cfa_offset 8
	leaq	760(%rsp), %rax
	pushq	%rax
	.cfi_adjust_cfa_offset 8
	pushq	$19
	.cfi_adjust_cfa_offset 8
	leaq	1096(%rsp), %r13
	pushq	%r13
	.cfi_adjust_cfa_offset 8
	callq	fmonty
	addq	$112, %rsp
	.cfi_adjust_cfa_offset -112
	movl	$19, %esi
	movl	$19, %ecx
	leaq	32(%rsp), %rdi
	movq	%r12, %rdx
	movq	%rbp, %r8
	movl	%ebx, %r9d
	callq	swap_conditional
	movl	$19, %esi
	movl	$19, %ecx
	movq	%r15, %rdi
	movq	%r13, %rdx
	movq	%rbp, %r8
	movl	%ebx, %r9d
	callq	swap_conditional
	movq	(%rsp), %rax            # 8-byte Reload
	shll	$2, %eax
	movzbl	%al, %r14d
	movq	%r14, %rbp
	shrq	$7, %rbp
	movl	$19, %esi
	movl	$19, %ecx
	leaq	32(%rsp), %rdi
	movq	%r12, %rdx
	movq	%rbp, %r8
	movl	%ebx, %r9d
	callq	swap_conditional
	movl	$19, %esi
	movl	$19, %ecx
	movq	%r15, %rdi
	movq	%r13, %rdx
	movq	%r13, %r12
	movq	%rbp, %r8
	movl	%ebx, %r9d
	callq	swap_conditional
	subq	$8, %rsp
	.cfi_adjust_cfa_offset 8
	movl	$19, %esi
	movl	$19, %ecx
	movl	$19, %r9d
	leaq	680(%rsp), %r13
	movq	%r13, %rdi
	leaq	200(%rsp), %rdx
	leaq	840(%rsp), %r15
	movq	%r15, %r8
	pushq	%rbx
	.cfi_adjust_cfa_offset 8
	pushq	1400(%rsp)
	.cfi_adjust_cfa_offset 8
	pushq	1400(%rsp)
	.cfi_adjust_cfa_offset 8
	pushq	$19
	.cfi_adjust_cfa_offset 8
	pushq	%r12
	.cfi_adjust_cfa_offset 8
	pushq	$19
	.cfi_adjust_cfa_offset 8
	leaq	568(%rsp), %rax
	pushq	%rax
	.cfi_adjust_cfa_offset 8
	pushq	$19
	.cfi_adjust_cfa_offset 8
	leaq	424(%rsp), %rax
	pushq	%rax
	.cfi_adjust_cfa_offset 8
	pushq	$19
	.cfi_adjust_cfa_offset 8
	leaq	120(%rsp), %rax
	pushq	%rax
	.cfi_adjust_cfa_offset 8
	pushq	$19
	.cfi_adjust_cfa_offset 8
	leaq	1256(%rsp), %r12
	pushq	%r12
	.cfi_adjust_cfa_offset 8
	callq	fmonty
	addq	$112, %rsp
	.cfi_adjust_cfa_offset -112
	movl	$19, %esi
	movl	$19, %ecx
	movq	%r13, %rdi
	movq	%r15, %rdx
	movq	%rbp, %r8
	movl	%ebx, %r9d
	callq	swap_conditional
	movl	$19, %esi
	movl	$19, %ecx
	leaq	192(%rsp), %rdi
	movq	%r12, %rdx
	movq	%rbp, %r8
	movl	%ebx, %r9d
	callq	swap_conditional
	leal	(%r14,%r14), %eax
	movzbl	%al, %ebp
	shrq	$7, %rbp
	movl	$19, %esi
	movl	$19, %ecx
	movq	%r13, %rdi
	movq	%r15, %rdx
	movq	%rbp, %r8
	movl	%ebx, %r9d
	callq	swap_conditional
	movl	$19, %esi
	movl	$19, %ecx
	leaq	192(%rsp), %rdi
	movq	%rdi, %r15
	movq	%r12, %rdx
	movq	%rbp, %r8
	movl	%ebx, %r9d
	callq	swap_conditional
	subq	$8, %rsp
	.cfi_adjust_cfa_offset 8
	movl	$19, %esi
	movl	$19, %ecx
	movl	$19, %r9d
	leaq	40(%rsp), %rdi
	leaq	360(%rsp), %rdx
	leaq	520(%rsp), %r13
	movq	%r13, %r8
	pushq	%rbx
	.cfi_adjust_cfa_offset 8
	movq	1400(%rsp), %rax
	pushq	%rax
	.cfi_adjust_cfa_offset 8
	movq	1400(%rsp), %rax
	pushq	%rax
	.cfi_adjust_cfa_offset 8
	pushq	$19
	.cfi_adjust_cfa_offset 8
	pushq	%r12
	.cfi_adjust_cfa_offset 8
	pushq	$19
	.cfi_adjust_cfa_offset 8
	leaq	888(%rsp), %rax
	pushq	%rax
	.cfi_adjust_cfa_offset 8
	pushq	$19
	.cfi_adjust_cfa_offset 8
	pushq	%r15
	.cfi_adjust_cfa_offset 8
	pushq	$19
	.cfi_adjust_cfa_offset 8
	leaq	760(%rsp), %rax
	pushq	%rax
	.cfi_adjust_cfa_offset 8
	pushq	$19
	.cfi_adjust_cfa_offset 8
	leaq	1096(%rsp), %r15
	pushq	%r15
	.cfi_adjust_cfa_offset 8
	callq	fmonty
	addq	$112, %rsp
	.cfi_adjust_cfa_offset -112
	movl	$19, %esi
	movl	$19, %ecx
	leaq	32(%rsp), %r12
	movq	%r12, %rdi
	movq	%r13, %rdx
	movq	%rbp, %r8
	movl	%ebx, %r9d
	callq	swap_conditional
	movl	$19, %esi
	movl	$19, %ecx
	leaq	352(%rsp), %rdi
	movq	%r15, %rdx
	movq	%rbp, %r8
	movl	%ebx, %r9d
	callq	swap_conditional
	shll	$2, %r14d
	movzbl	%r14b, %ebp
	shrq	$7, %rbp
	movl	$19, %esi
	movl	$19, %ecx
	movq	%r12, %rdi
	movq	%r13, %rdx
	movq	%rbp, %r8
	movl	%ebx, %r9d
	callq	swap_conditional
	movl	$19, %esi
	movl	$19, %ecx
	leaq	352(%rsp), %rdi
	movq	%r15, %rdx
	movq	%rbp, %r8
	movl	%ebx, %r9d
	callq	swap_conditional
	subq	$8, %rsp
	.cfi_adjust_cfa_offset 8
	movl	$19, %esi
	movl	$19, %ecx
	movl	$19, %r9d
	leaq	680(%rsp), %r14
	movq	%r14, %rdi
	leaq	200(%rsp), %rdx
	leaq	840(%rsp), %r12
	movq	%r12, %r8
	pushq	%rbx
	.cfi_adjust_cfa_offset 8
	pushq	1400(%rsp)
	.cfi_adjust_cfa_offset 8
	pushq	1400(%rsp)
	.cfi_adjust_cfa_offset 8
	pushq	$19
	.cfi_adjust_cfa_offset 8
	pushq	%r15
	.cfi_adjust_cfa_offset 8
	pushq	$19
	.cfi_adjust_cfa_offset 8
	pushq	%r13
	.cfi_adjust_cfa_offset 8
	pushq	$19
	.cfi_adjust_cfa_offset 8
	leaq	424(%rsp), %rax
	pushq	%rax
	.cfi_adjust_cfa_offset 8
	pushq	$19
	.cfi_adjust_cfa_offset 8
	leaq	120(%rsp), %rax
	pushq	%rax
	.cfi_adjust_cfa_offset 8
	pushq	$19
	.cfi_adjust_cfa_offset 8
	leaq	1256(%rsp), %r15
	pushq	%r15
	.cfi_adjust_cfa_offset 8
	callq	fmonty
	addq	$112, %rsp
	.cfi_adjust_cfa_offset -112
	movl	$19, %esi
	movl	$19, %ecx
	movq	%r14, %rdi
	movq	%r14, %r13
	movq	%r12, %rdx
	movq	%rbp, %r8
	movl	%ebx, %r9d
	callq	swap_conditional
	movl	$19, %esi
	movl	$19, %ecx
	leaq	192(%rsp), %rdi
	movq	%rdi, %r14
	movq	%r15, %rdx
	movq	%rbp, %r8
	movl	%ebx, %r9d
	callq	swap_conditional
	movq	8(%rsp), %rax           # 8-byte Reload
	addq	$17, %rax
	cmpq	$17, 16(%rsp)           # 8-byte Folded Reload
	leaq	24(%rsp), %rcx
	cmovgq	%rax, %rcx
	cmpb	$0, 1392(%rsp)
	cmovneq	%rax, %rcx
	movzbl	(%rcx), %ebp
	movq	%rbp, (%rsp)            # 8-byte Spill
	shrq	$7, %rbp
	movl	$19, %esi
	movl	$19, %ecx
	movq	%r13, %rdi
	movq	%r12, %rdx
	movq	%rbp, %r8
	movl	%ebx, %r9d
	callq	swap_conditional
	movl	$19, %esi
	movl	$19, %ecx
	movq	%r14, %rdi
	movq	%r15, %rdx
	movq	%r15, %r12
	movq	%rbp, %r8
	movl	%ebx, %r9d
	callq	swap_conditional
	subq	$8, %rsp
	.cfi_adjust_cfa_offset 8
	movl	$19, %esi
	movl	$19, %ecx
	movl	$19, %r9d
	leaq	40(%rsp), %r15
	movq	%r15, %rdi
	leaq	360(%rsp), %r13
	movq	%r13, %rdx
	leaq	520(%rsp), %r14
	movq	%r14, %r8
	pushq	%rbx
	.cfi_adjust_cfa_offset 8
	movq	1400(%rsp), %rax
	pushq	%rax
	.cfi_adjust_cfa_offset 8
	movq	1400(%rsp), %rax
	pushq	%rax
	.cfi_adjust_cfa_offset 8
	pushq	$19
	.cfi_adjust_cfa_offset 8
	pushq	%r12
	.cfi_adjust_cfa_offset 8
	pushq	$19
	.cfi_adjust_cfa_offset 8
	leaq	888(%rsp), %rax
	pushq	%rax
	.cfi_adjust_cfa_offset 8
	pushq	$19
	.cfi_adjust_cfa_offset 8
	leaq	264(%rsp), %rax
	pushq	%rax
	.cfi_adjust_cfa_offset 8
	pushq	$19
	.cfi_adjust_cfa_offset 8
	leaq	760(%rsp), %rax
	pushq	%rax
	.cfi_adjust_cfa_offset 8
	pushq	$19
	.cfi_adjust_cfa_offset 8
	leaq	1096(%rsp), %r12
	pushq	%r12
	.cfi_adjust_cfa_offset 8
	callq	fmonty
	addq	$112, %rsp
	.cfi_adjust_cfa_offset -112
	movl	$19, %esi
	movl	$19, %ecx
	movq	%r15, %rdi
	movq	%r14, %rdx
	movq	%rbp, %r8
	movl	%ebx, %r9d
	callq	swap_conditional
	movl	$19, %esi
	movl	$19, %ecx
	movq	%r13, %rdi
	movq	%r12, %rdx
	movq	%rbp, %r8
	movl	%ebx, %r9d
	callq	swap_conditional
	movq	(%rsp), %rax            # 8-byte Reload
	addl	%eax, %eax
	movzbl	%al, %ecx
	movq	%rcx, (%rsp)            # 8-byte Spill
	movzbl	%al, %ebp
	shrq	$7, %rbp
	movl	$19, %esi
	movl	$19, %ecx
	movq	%r15, %rdi
	movq	%r14, %r15
	movq	%r14, %rdx
	movq	%rbp, %r8
	movl	%ebx, %r9d
	callq	swap_conditional
	movl	$19, %esi
	movl	$19, %ecx
	movq	%r13, %rdi
	movq	%r12, %rdx
	movq	%r12, %r14
	movq	%rbp, %r8
	movl	%ebx, %r9d
	callq	swap_conditional
	subq	$8, %rsp
	.cfi_adjust_cfa_offset 8
	movl	$19, %esi
	movl	$19, %ecx
	movl	$19, %r9d
	leaq	680(%rsp), %r12
	movq	%r12, %rdi
	leaq	200(%rsp), %rdx
	leaq	840(%rsp), %r13
	movq	%r13, %r8
	pushq	%rbx
	.cfi_adjust_cfa_offset 8
	movq	1400(%rsp), %rax
	pushq	%rax
	.cfi_adjust_cfa_offset 8
	movq	1400(%rsp), %rax
	pushq	%rax
	.cfi_adjust_cfa_offset 8
	pushq	$19
	.cfi_adjust_cfa_offset 8
	pushq	%r14
	.cfi_adjust_cfa_offset 8
	pushq	$19
	.cfi_adjust_cfa_offset 8
	pushq	%r15
	.cfi_adjust_cfa_offset 8
	pushq	$19
	.cfi_adjust_cfa_offset 8
	leaq	424(%rsp), %rax
	pushq	%rax
	.cfi_adjust_cfa_offset 8
	pushq	$19
	.cfi_adjust_cfa_offset 8
	leaq	120(%rsp), %rax
	pushq	%rax
	.cfi_adjust_cfa_offset 8
	pushq	$19
	.cfi_adjust_cfa_offset 8
	leaq	1256(%rsp), %r15
	pushq	%r15
	.cfi_adjust_cfa_offset 8
	callq	fmonty
	addq	$112, %rsp
	.cfi_adjust_cfa_offset -112
	movl	$19, %esi
	movl	$19, %ecx
	movq	%r12, %rdi
	movq	%r13, %rdx
	movq	%rbp, %r8
	movl	%ebx, %r9d
	callq	swap_conditional
	movl	$19, %esi
	movl	$19, %ecx
	leaq	192(%rsp), %rdi
	movq	%rdi, %r12
	movq	%r15, %rdx
	movq	%rbp, %r8
	movl	%ebx, %r9d
	callq	swap_conditional
	movq	(%rsp), %r14            # 8-byte Reload
	leal	(%r14,%r14), %eax
	movzbl	%al, %ebp
	shrq	$7, %rbp
	movl	$19, %esi
	movl	$19, %ecx
	leaq	672(%rsp), %rdi
	movq	%r13, %rdx
	movq	%rbp, %r8
	movl	%ebx, %r9d
	callq	swap_conditional
	movl	$19, %esi
	movl	$19, %ecx
	movq	%r12, %rdi
	movq	%r15, %rdx
	movq	%r15, %r13
	movq	%rbp, %r8
	movl	%ebx, %r9d
	callq	swap_conditional
	subq	$8, %rsp
	.cfi_adjust_cfa_offset 8
	movl	$19, %esi
	movl	$19, %ecx
	movl	$19, %r9d
	leaq	40(%rsp), %r12
	movq	%r12, %rdi
	leaq	360(%rsp), %rdx
	leaq	520(%rsp), %r15
	movq	%r15, %r8
	pushq	%rbx
	.cfi_adjust_cfa_offset 8
	pushq	1400(%rsp)
	.cfi_adjust_cfa_offset 8
	pushq	1400(%rsp)
	.cfi_adjust_cfa_offset 8
	pushq	$19
	.cfi_adjust_cfa_offset 8
	pushq	%r13
	.cfi_adjust_cfa_offset 8
	pushq	$19
	.cfi_adjust_cfa_offset 8
	leaq	888(%rsp), %rax
	pushq	%rax
	.cfi_adjust_cfa_offset 8
	pushq	$19
	.cfi_adjust_cfa_offset 8
	leaq	264(%rsp), %rax
	pushq	%rax
	.cfi_adjust_cfa_offset 8
	pushq	$19
	.cfi_adjust_cfa_offset 8
	leaq	760(%rsp), %rax
	pushq	%rax
	.cfi_adjust_cfa_offset 8
	pushq	$19
	.cfi_adjust_cfa_offset 8
	leaq	1096(%rsp), %r13
	pushq	%r13
	.cfi_adjust_cfa_offset 8
	callq	fmonty
	addq	$112, %rsp
	.cfi_adjust_cfa_offset -112
	movl	$19, %esi
	movl	$19, %ecx
	movq	%r12, %rdi
	movq	%r15, %rdx
	movq	%rbp, %r8
	movl	%ebx, %r9d
	callq	swap_conditional
	movl	$19, %esi
	movl	$19, %ecx
	leaq	352(%rsp), %rdi
	movq	%r13, %rdx
	movq	%rbp, %r8
	movl	%ebx, %r9d
	callq	swap_conditional
	movq	%r14, %rcx
	shll	$2, %ecx
	movzbl	%cl, %eax
	movq	%rax, (%rsp)            # 8-byte Spill
	movzbl	%cl, %ebp
	shrq	$7, %rbp
	movl	$19, %esi
	movl	$19, %ecx
	movq	%r12, %rdi
	movq	%r15, %rdx
	movq	%rbp, %r8
	movl	%ebx, %r9d
	callq	swap_conditional
	movl	$19, %esi
	movl	$19, %ecx
	leaq	352(%rsp), %rdi
	movq	%r13, %rdx
	movq	%r13, %r12
	movq	%rbp, %r8
	movl	%ebx, %r9d
	callq	swap_conditional
	subq	$8, %rsp
	.cfi_adjust_cfa_offset 8
	movl	$19, %esi
	movl	$19, %ecx
	movl	$19, %r9d
	leaq	680(%rsp), %r14
	movq	%r14, %rdi
	leaq	200(%rsp), %rdx
	leaq	840(%rsp), %r13
	movq	%r13, %r8
	pushq	%rbx
	.cfi_adjust_cfa_offset 8
	movq	1400(%rsp), %rax
	pushq	%rax
	.cfi_adjust_cfa_offset 8
	movq	1400(%rsp), %rax
	pushq	%rax
	.cfi_adjust_cfa_offset 8
	pushq	$19
	.cfi_adjust_cfa_offset 8
	pushq	%r12
	.cfi_adjust_cfa_offset 8
	pushq	$19
	.cfi_adjust_cfa_offset 8
	pushq	%r15
	.cfi_adjust_cfa_offset 8
	pushq	$19
	.cfi_adjust_cfa_offset 8
	leaq	424(%rsp), %rax
	pushq	%rax
	.cfi_adjust_cfa_offset 8
	pushq	$19
	.cfi_adjust_cfa_offset 8
	leaq	120(%rsp), %rax
	pushq	%rax
	.cfi_adjust_cfa_offset 8
	pushq	$19
	.cfi_adjust_cfa_offset 8
	leaq	1256(%rsp), %r12
	pushq	%r12
	.cfi_adjust_cfa_offset 8
	callq	fmonty
	addq	$112, %rsp
	.cfi_adjust_cfa_offset -112
	movl	$19, %esi
	movl	$19, %ecx
	movq	%r14, %rdi
	movq	%r14, %r15
	movq	%r13, %rdx
	movq	%rbp, %r8
	movl	%ebx, %r9d
	callq	swap_conditional
	movl	$19, %esi
	movl	$19, %ecx
	leaq	192(%rsp), %r14
	movq	%r14, %rdi
	movq	%r12, %rdx
	movq	%rbp, %r8
	movl	%ebx, %r9d
	callq	swap_conditional
	movq	(%rsp), %rax            # 8-byte Reload
	addl	%eax, %eax
	movzbl	%al, %ebp
	shrq	$7, %rbp
	movl	$19, %esi
	movl	$19, %ecx
	movq	%r15, %rdi
	movq	%r13, %rdx
	movq	%rbp, %r8
	movl	%ebx, %r9d
	callq	swap_conditional
	movl	$19, %esi
	movl	$19, %ecx
	movq	%r14, %rdi
	movq	%r12, %rdx
	movq	%r12, %r15
	movq	%rbp, %r8
	movl	%ebx, %r9d
	callq	swap_conditional
	subq	$8, %rsp
	.cfi_adjust_cfa_offset 8
	movl	$19, %esi
	movl	$19, %ecx
	movl	$19, %r9d
	leaq	40(%rsp), %r12
	movq	%r12, %rdi
	leaq	360(%rsp), %r13
	movq	%r13, %rdx
	leaq	520(%rsp), %r8
	pushq	%rbx
	.cfi_adjust_cfa_offset 8
	movq	1400(%rsp), %rax
	pushq	%rax
	.cfi_adjust_cfa_offset 8
	movq	1400(%rsp), %rax
	pushq	%rax
	.cfi_adjust_cfa_offset 8
	pushq	$19
	.cfi_adjust_cfa_offset 8
	pushq	%r15
	.cfi_adjust_cfa_offset 8
	pushq	$19
	.cfi_adjust_cfa_offset 8
	leaq	888(%rsp), %rax
	pushq	%rax
	.cfi_adjust_cfa_offset 8
	pushq	$19
	.cfi_adjust_cfa_offset 8
	pushq	%r14
	.cfi_adjust_cfa_offset 8
	pushq	$19
	.cfi_adjust_cfa_offset 8
	leaq	760(%rsp), %rax
	pushq	%rax
	.cfi_adjust_cfa_offset 8
	pushq	$19
	.cfi_adjust_cfa_offset 8
	leaq	1096(%rsp), %r14
	pushq	%r14
	.cfi_adjust_cfa_offset 8
	callq	fmonty
	addq	$112, %rsp
	.cfi_adjust_cfa_offset -112
	movl	$19, %esi
	movl	$19, %ecx
	movq	%r12, %rdi
	leaq	512(%rsp), %rdx
	movq	%rdx, %r12
	movq	%rbp, %r8
	movl	%ebx, %r9d
	callq	swap_conditional
	movl	$19, %esi
	movl	$19, %ecx
	movq	%r13, %rdi
	movq	%r14, %rdx
	movq	%rbp, %r8
	movl	%ebx, %r9d
	callq	swap_conditional
	movq	(%rsp), %rax            # 8-byte Reload
	shll	$2, %eax
	movzbl	%al, %ebp
	movq	%rbp, (%rsp)            # 8-byte Spill
	shrq	$7, %rbp
	movl	$19, %esi
	movl	$19, %ecx
	leaq	32(%rsp), %rdi
	movq	%r12, %rdx
	movq	%rbp, %r8
	movl	%ebx, %r9d
	callq	swap_conditional
	movl	$19, %esi
	movl	$19, %ecx
	movq	%r13, %rdi
	movq	%r14, %rdx
	movq	%rbp, %r8
	movl	%ebx, %r9d
	callq	swap_conditional
	subq	$8, %rsp
	.cfi_adjust_cfa_offset 8
	movl	$19, %esi
	movl	$19, %ecx
	movl	$19, %r9d
	leaq	680(%rsp), %r15
	movq	%r15, %rdi
	leaq	200(%rsp), %rdx
	leaq	840(%rsp), %r12
	movq	%r12, %r8
	pushq	%rbx
	.cfi_adjust_cfa_offset 8
	pushq	1400(%rsp)
	.cfi_adjust_cfa_offset 8
	pushq	1400(%rsp)
	.cfi_adjust_cfa_offset 8
	pushq	$19
	.cfi_adjust_cfa_offset 8
	pushq	%r14
	.cfi_adjust_cfa_offset 8
	pushq	$19
	.cfi_adjust_cfa_offset 8
	leaq	568(%rsp), %rax
	pushq	%rax
	.cfi_adjust_cfa_offset 8
	pushq	$19
	.cfi_adjust_cfa_offset 8
	pushq	%r13
	.cfi_adjust_cfa_offset 8
	pushq	$19
	.cfi_adjust_cfa_offset 8
	leaq	120(%rsp), %rax
	pushq	%rax
	.cfi_adjust_cfa_offset 8
	pushq	$19
	.cfi_adjust_cfa_offset 8
	leaq	1256(%rsp), %r13
	pushq	%r13
	.cfi_adjust_cfa_offset 8
	callq	fmonty
	addq	$112, %rsp
	.cfi_adjust_cfa_offset -112
	movl	$19, %esi
	movl	$19, %ecx
	movq	%r15, %rdi
	movq	%r12, %rdx
	movq	%rbp, %r8
	movl	%ebx, %r9d
	callq	swap_conditional
	movl	$19, %esi
	movl	$19, %ecx
	leaq	192(%rsp), %rdi
	movq	%rdi, %r14
	movq	%r13, %rdx
	movq	%r13, %r12
	movq	%rbp, %r8
	movl	%ebx, %r9d
	callq	swap_conditional
	movq	(%rsp), %rax            # 8-byte Reload
	addl	%eax, %eax
	movzbl	%al, %ebp
	shrq	$7, %rbp
	movl	$19, %esi
	movl	$19, %ecx
	movq	%r15, %rdi
	leaq	832(%rsp), %r13
	movq	%r13, %rdx
	movq	%rbp, %r8
	movl	%ebx, %r9d
	callq	swap_conditional
	movl	$19, %esi
	movl	$19, %ecx
	movq	%r14, %rdi
	movq	%r12, %rdx
	movq	%r12, %r14
	movq	%rbp, %r8
	movl	%ebx, %r9d
	callq	swap_conditional
	subq	$8, %rsp
	.cfi_adjust_cfa_offset 8
	movl	$19, %esi
	movl	$19, %ecx
	movl	$19, %r9d
	leaq	40(%rsp), %r12
	movq	%r12, %rdi
	leaq	360(%rsp), %rdx
	leaq	520(%rsp), %r15
	movq	%r15, %r8
	pushq	%rbx
	.cfi_adjust_cfa_offset 8
	movq	1400(%rsp), %rax
	pushq	%rax
	.cfi_adjust_cfa_offset 8
	movq	1400(%rsp), %rax
	pushq	%rax
	.cfi_adjust_cfa_offset 8
	pushq	$19
	.cfi_adjust_cfa_offset 8
	pushq	%r14
	.cfi_adjust_cfa_offset 8
	pushq	$19
	.cfi_adjust_cfa_offset 8
	pushq	%r13
	.cfi_adjust_cfa_offset 8
	pushq	$19
	.cfi_adjust_cfa_offset 8
	leaq	264(%rsp), %rax
	pushq	%rax
	.cfi_adjust_cfa_offset 8
	pushq	$19
	.cfi_adjust_cfa_offset 8
	leaq	760(%rsp), %rax
	pushq	%rax
	.cfi_adjust_cfa_offset 8
	pushq	$19
	.cfi_adjust_cfa_offset 8
	leaq	1096(%rsp), %r13
	pushq	%r13
	.cfi_adjust_cfa_offset 8
	callq	fmonty
	addq	$112, %rsp
	.cfi_adjust_cfa_offset -112
	movl	$19, %esi
	movl	$19, %ecx
	movq	%r12, %rdi
	movq	%r12, %r14
	movq	%r15, %rdx
	movq	%rbp, %r8
	movl	%ebx, %r9d
	callq	swap_conditional
	movl	$19, %esi
	movl	$19, %ecx
	leaq	352(%rsp), %rdi
	movq	%rdi, %r12
	movq	%r13, %rdx
	movq	%rbp, %r8
	movl	%ebx, %r9d
	callq	swap_conditional
	movq	(%rsp), %rax            # 8-byte Reload
	shll	$2, %eax
	movzbl	%al, %ebp
	shrq	$7, %rbp
	movl	$19, %esi
	movl	$19, %ecx
	movq	%r14, %rdi
	movq	%r15, %rdx
	movq	%rbp, %r8
	movl	%ebx, %r9d
	callq	swap_conditional
	movl	$19, %esi
	movl	$19, %ecx
	movq	%r12, %rdi
	movq	%r12, %r14
	movq	%r13, %rdx
	movq	%rbp, %r8
	movl	%ebx, %r9d
	callq	swap_conditional
	subq	$8, %rsp
	.cfi_adjust_cfa_offset 8
	movl	$19, %esi
	movl	$19, %ecx
	movl	$19, %r9d
	leaq	680(%rsp), %r12
	movq	%r12, %rdi
	leaq	200(%rsp), %rdx
	leaq	840(%rsp), %r15
	movq	%r15, %r8
	pushq	%rbx
	.cfi_adjust_cfa_offset 8
	pushq	1400(%rsp)
	.cfi_adjust_cfa_offset 8
	pushq	1400(%rsp)
	.cfi_adjust_cfa_offset 8
	pushq	$19
	.cfi_adjust_cfa_offset 8
	pushq	%r13
	.cfi_adjust_cfa_offset 8
	pushq	$19
	.cfi_adjust_cfa_offset 8
	leaq	568(%rsp), %rax
	pushq	%rax
	.cfi_adjust_cfa_offset 8
	pushq	$19
	.cfi_adjust_cfa_offset 8
	pushq	%r14
	.cfi_adjust_cfa_offset 8
	pushq	$19
	.cfi_adjust_cfa_offset 8
	leaq	120(%rsp), %rax
	pushq	%rax
	.cfi_adjust_cfa_offset 8
	pushq	$19
	.cfi_adjust_cfa_offset 8
	leaq	1256(%rsp), %r14
	pushq	%r14
	.cfi_adjust_cfa_offset 8
	callq	fmonty
	addq	$112, %rsp
	.cfi_adjust_cfa_offset -112
	movl	$19, %esi
	movl	$19, %ecx
	movq	%r12, %rdi
	movq	%r15, %rdx
	movq	%rbp, %r8
	movl	%ebx, %r9d
	callq	swap_conditional
	movl	$19, %esi
	movl	$19, %ecx
	leaq	192(%rsp), %rdi
	movq	%rdi, %r13
	movq	%r14, %rdx
	movq	%rbp, %r8
	movl	%ebx, %r9d
	callq	swap_conditional
	movq	8(%rsp), %rax           # 8-byte Reload
	addq	$16, %rax
	cmpq	$16, 16(%rsp)           # 8-byte Folded Reload
	leaq	24(%rsp), %rcx
	cmovgq	%rax, %rcx
	cmpb	$0, 1392(%rsp)
	cmovneq	%rax, %rcx
	movzbl	(%rcx), %ebp
	movq	%rbp, (%rsp)            # 8-byte Spill
	shrq	$7, %rbp
	movl	$19, %esi
	movl	$19, %ecx
	movq	%r12, %rdi
	movq	%r15, %rdx
	movq	%rbp, %r8
	movl	%ebx, %r9d
	callq	swap_conditional
	movl	$19, %esi
	movl	$19, %ecx
	movq	%r13, %rdi
	movq	%r14, %rdx
	movq	%r14, %r12
	movq	%rbp, %r8
	movl	%ebx, %r9d
	callq	swap_conditional
	subq	$8, %rsp
	.cfi_adjust_cfa_offset 8
	movl	$19, %esi
	movl	$19, %ecx
	movl	$19, %r9d
	leaq	40(%rsp), %r14
	movq	%r14, %rdi
	leaq	360(%rsp), %rdx
	leaq	520(%rsp), %r15
	movq	%r15, %r8
	pushq	%rbx
	.cfi_adjust_cfa_offset 8
	movq	1400(%rsp), %rax
	pushq	%rax
	.cfi_adjust_cfa_offset 8
	movq	1400(%rsp), %rax
	pushq	%rax
	.cfi_adjust_cfa_offset 8
	pushq	$19
	.cfi_adjust_cfa_offset 8
	pushq	%r12
	.cfi_adjust_cfa_offset 8
	pushq	$19
	.cfi_adjust_cfa_offset 8
	leaq	888(%rsp), %rax
	pushq	%rax
	.cfi_adjust_cfa_offset 8
	pushq	$19
	.cfi_adjust_cfa_offset 8
	pushq	%r13
	.cfi_adjust_cfa_offset 8
	pushq	$19
	.cfi_adjust_cfa_offset 8
	leaq	760(%rsp), %rax
	pushq	%rax
	.cfi_adjust_cfa_offset 8
	pushq	$19
	.cfi_adjust_cfa_offset 8
	leaq	1096(%rsp), %r13
	pushq	%r13
	.cfi_adjust_cfa_offset 8
	callq	fmonty
	addq	$112, %rsp
	.cfi_adjust_cfa_offset -112
	movl	$19, %esi
	movl	$19, %ecx
	movq	%r14, %rdi
	movq	%r15, %rdx
	movq	%rbp, %r8
	movl	%ebx, %r9d
	callq	swap_conditional
	movl	$19, %esi
	movl	$19, %ecx
	leaq	352(%rsp), %rdi
	movq	%rdi, %r12
	movq	%r13, %rdx
	movq	%rbp, %r8
	movl	%ebx, %r9d
	callq	swap_conditional
	movq	(%rsp), %rax            # 8-byte Reload
	addl	%eax, %eax
	movzbl	%al, %ecx
	movq	%rcx, (%rsp)            # 8-byte Spill
	movzbl	%al, %ebp
	shrq	$7, %rbp
	movl	$19, %esi
	movl	$19, %ecx
	movq	%r14, %rdi
	movq	%r15, %rdx
	movq	%rbp, %r8
	movl	%ebx, %r9d
	callq	swap_conditional
	movl	$19, %esi
	movl	$19, %ecx
	movq	%r12, %rdi
	movq	%r12, %r15
	movq	%r13, %rdx
	movq	%r13, %r14
	movq	%rbp, %r8
	movl	%ebx, %r9d
	callq	swap_conditional
	subq	$8, %rsp
	.cfi_adjust_cfa_offset 8
	movl	$19, %esi
	movl	$19, %ecx
	movl	$19, %r9d
	leaq	680(%rsp), %r12
	movq	%r12, %rdi
	leaq	200(%rsp), %rdx
	leaq	840(%rsp), %r13
	movq	%r13, %r8
	pushq	%rbx
	.cfi_adjust_cfa_offset 8
	movq	1400(%rsp), %rax
	pushq	%rax
	.cfi_adjust_cfa_offset 8
	movq	1400(%rsp), %rax
	pushq	%rax
	.cfi_adjust_cfa_offset 8
	pushq	$19
	.cfi_adjust_cfa_offset 8
	pushq	%r14
	.cfi_adjust_cfa_offset 8
	pushq	$19
	.cfi_adjust_cfa_offset 8
	leaq	568(%rsp), %rax
	pushq	%rax
	.cfi_adjust_cfa_offset 8
	pushq	$19
	.cfi_adjust_cfa_offset 8
	pushq	%r15
	.cfi_adjust_cfa_offset 8
	pushq	$19
	.cfi_adjust_cfa_offset 8
	leaq	120(%rsp), %rax
	pushq	%rax
	.cfi_adjust_cfa_offset 8
	pushq	$19
	.cfi_adjust_cfa_offset 8
	leaq	1256(%rsp), %r15
	pushq	%r15
	.cfi_adjust_cfa_offset 8
	callq	fmonty
	addq	$112, %rsp
	.cfi_adjust_cfa_offset -112
	movl	$19, %esi
	movl	$19, %ecx
	movq	%r12, %rdi
	movq	%r13, %rdx
	movq	%r13, %r14
	movq	%rbp, %r8
	movl	%ebx, %r9d
	callq	swap_conditional
	movl	$19, %esi
	movl	$19, %ecx
	leaq	192(%rsp), %rdi
	movq	%rdi, %r13
	movq	%r15, %rdx
	movq	%rbp, %r8
	movl	%ebx, %r9d
	callq	swap_conditional
	movq	(%rsp), %rax            # 8-byte Reload
	addl	%eax, %eax
	movzbl	%al, %ebp
	shrq	$7, %rbp
	movl	$19, %esi
	movl	$19, %ecx
	movq	%r12, %rdi
	movq	%r14, %rdx
	movq	%rbp, %r8
	movl	%ebx, %r9d
	callq	swap_conditional
	movl	$19, %esi
	movl	$19, %ecx
	movq	%r13, %rdi
	movq	%r15, %rdx
	movq	%r15, %r14
	movq	%rbp, %r8
	movl	%ebx, %r9d
	callq	swap_conditional
	subq	$8, %rsp
	.cfi_adjust_cfa_offset 8
	movl	$19, %esi
	movl	$19, %ecx
	movl	$19, %r9d
	leaq	40(%rsp), %r15
	movq	%r15, %rdi
	leaq	360(%rsp), %rdx
	leaq	520(%rsp), %r12
	movq	%r12, %r8
	pushq	%rbx
	.cfi_adjust_cfa_offset 8
	pushq	1400(%rsp)
	.cfi_adjust_cfa_offset 8
	pushq	1400(%rsp)
	.cfi_adjust_cfa_offset 8
	pushq	$19
	.cfi_adjust_cfa_offset 8
	pushq	%r14
	.cfi_adjust_cfa_offset 8
	pushq	$19
	.cfi_adjust_cfa_offset 8
	leaq	888(%rsp), %rax
	pushq	%rax
	.cfi_adjust_cfa_offset 8
	pushq	$19
	.cfi_adjust_cfa_offset 8
	pushq	%r13
	.cfi_adjust_cfa_offset 8
	pushq	$19
	.cfi_adjust_cfa_offset 8
	leaq	760(%rsp), %rax
	pushq	%rax
	.cfi_adjust_cfa_offset 8
	pushq	$19
	.cfi_adjust_cfa_offset 8
	leaq	1096(%rsp), %r13
	pushq	%r13
	.cfi_adjust_cfa_offset 8
	callq	fmonty
	addq	$112, %rsp
	.cfi_adjust_cfa_offset -112
	movl	$19, %esi
	movl	$19, %ecx
	movq	%r15, %rdi
	movq	%r12, %rdx
	movq	%r12, %r14
	movq	%rbp, %r8
	movl	%ebx, %r9d
	callq	swap_conditional
	movl	$19, %esi
	movl	$19, %ecx
	leaq	352(%rsp), %rdi
	movq	%rdi, %r12
	movq	%r13, %rdx
	movq	%rbp, %r8
	movl	%ebx, %r9d
	callq	swap_conditional
	movq	(%rsp), %rcx            # 8-byte Reload
	shll	$2, %ecx
	movzbl	%cl, %eax
	movq	%rax, (%rsp)            # 8-byte Spill
	movzbl	%cl, %ebp
	shrq	$7, %rbp
	movl	$19, %esi
	movl	$19, %ecx
	movq	%r15, %rdi
	movq	%r14, %rdx
	movq	%rbp, %r8
	movl	%ebx, %r9d
	callq	swap_conditional
	movl	$19, %esi
	movl	$19, %ecx
	movq	%r12, %rdi
	movq	%r12, %r14
	movq	%r13, %rdx
	movq	%r13, %r15
	movq	%rbp, %r8
	movl	%ebx, %r9d
	callq	swap_conditional
	subq	$8, %rsp
	.cfi_adjust_cfa_offset 8
	movl	$19, %esi
	movl	$19, %ecx
	movl	$19, %r9d
	leaq	680(%rsp), %r12
	movq	%r12, %rdi
	leaq	200(%rsp), %rdx
	leaq	840(%rsp), %r13
	movq	%r13, %r8
	pushq	%rbx
	.cfi_adjust_cfa_offset 8
	pushq	1400(%rsp)
	.cfi_adjust_cfa_offset 8
	pushq	1400(%rsp)
	.cfi_adjust_cfa_offset 8
	pushq	$19
	.cfi_adjust_cfa_offset 8
	pushq	%r15
	.cfi_adjust_cfa_offset 8
	pushq	$19
	.cfi_adjust_cfa_offset 8
	leaq	568(%rsp), %rax
	pushq	%rax
	.cfi_adjust_cfa_offset 8
	pushq	$19
	.cfi_adjust_cfa_offset 8
	pushq	%r14
	.cfi_adjust_cfa_offset 8
	pushq	$19
	.cfi_adjust_cfa_offset 8
	leaq	120(%rsp), %rax
	pushq	%rax
	.cfi_adjust_cfa_offset 8
	pushq	$19
	.cfi_adjust_cfa_offset 8
	leaq	1256(%rsp), %r14
	pushq	%r14
	.cfi_adjust_cfa_offset 8
	callq	fmonty
	addq	$112, %rsp
	.cfi_adjust_cfa_offset -112
	movl	$19, %esi
	movl	$19, %ecx
	movq	%r12, %rdi
	movq	%r13, %rdx
	movq	%rbp, %r8
	movl	%ebx, %r9d
	callq	swap_conditional
	movl	$19, %esi
	movl	$19, %ecx
	leaq	192(%rsp), %rdi
	movq	%rdi, %r15
	movq	%r14, %rdx
	movq	%rbp, %r8
	movl	%ebx, %r9d
	callq	swap_conditional
	movq	(%rsp), %rax            # 8-byte Reload
	addl	%eax, %eax
	movzbl	%al, %ebp
	shrq	$7, %rbp
	movl	$19, %esi
	movl	$19, %ecx
	movq	%r12, %rdi
	movq	%r13, %rdx
	movq	%rbp, %r8
	movl	%ebx, %r9d
	callq	swap_conditional
	movl	$19, %esi
	movl	$19, %ecx
	movq	%r15, %rdi
	movq	%r15, %r12
	movq	%r14, %rdx
	movq	%r14, %r15
	movq	%rbp, %r8
	movl	%ebx, %r9d
	callq	swap_conditional
	subq	$8, %rsp
	.cfi_adjust_cfa_offset 8
	movl	$19, %esi
	movl	$19, %ecx
	movl	$19, %r9d
	leaq	40(%rsp), %r14
	movq	%r14, %rdi
	leaq	360(%rsp), %rdx
	leaq	520(%rsp), %r13
	movq	%r13, %r8
	pushq	%rbx
	.cfi_adjust_cfa_offset 8
	movq	1400(%rsp), %rax
	pushq	%rax
	.cfi_adjust_cfa_offset 8
	movq	1400(%rsp), %rax
	pushq	%rax
	.cfi_adjust_cfa_offset 8
	pushq	$19
	.cfi_adjust_cfa_offset 8
	pushq	%r15
	.cfi_adjust_cfa_offset 8
	pushq	$19
	.cfi_adjust_cfa_offset 8
	leaq	888(%rsp), %rax
	pushq	%rax
	.cfi_adjust_cfa_offset 8
	pushq	$19
	.cfi_adjust_cfa_offset 8
	pushq	%r12
	.cfi_adjust_cfa_offset 8
	pushq	$19
	.cfi_adjust_cfa_offset 8
	leaq	760(%rsp), %rax
	pushq	%rax
	.cfi_adjust_cfa_offset 8
	pushq	$19
	.cfi_adjust_cfa_offset 8
	leaq	1096(%rsp), %r12
	pushq	%r12
	.cfi_adjust_cfa_offset 8
	callq	fmonty
	addq	$112, %rsp
	.cfi_adjust_cfa_offset -112
	movl	$19, %esi
	movl	$19, %ecx
	movq	%r14, %rdi
	movq	%r14, %r15
	movq	%r13, %rdx
	movq	%rbp, %r8
	movl	%ebx, %r9d
	callq	swap_conditional
	movl	$19, %esi
	movl	$19, %ecx
	leaq	352(%rsp), %rdi
	movq	%r12, %rdx
	movq	%rbp, %r8
	movl	%ebx, %r9d
	callq	swap_conditional
	movq	(%rsp), %rax            # 8-byte Reload
	shll	$2, %eax
	movzbl	%al, %r14d
	movq	%r14, %rbp
	shrq	$7, %rbp
	movl	$19, %esi
	movl	$19, %ecx
	movq	%r15, %rdi
	movq	%r13, %rdx
	movq	%rbp, %r8
	movl	%ebx, %r9d
	callq	swap_conditional
	movl	$19, %esi
	movl	$19, %ecx
	leaq	352(%rsp), %rdi
	movq	%r12, %rdx
	movq	%r12, %r15
	movq	%rbp, %r8
	movl	%ebx, %r9d
	callq	swap_conditional
	subq	$8, %rsp
	.cfi_adjust_cfa_offset 8
	movl	$19, %esi
	movl	$19, %ecx
	movl	$19, %r9d
	leaq	680(%rsp), %r13
	movq	%r13, %rdi
	leaq	200(%rsp), %rdx
	leaq	840(%rsp), %r12
	movq	%r12, %r8
	pushq	%rbx
	.cfi_adjust_cfa_offset 8
	pushq	1400(%rsp)
	.cfi_adjust_cfa_offset 8
	pushq	1400(%rsp)
	.cfi_adjust_cfa_offset 8
	pushq	$19
	.cfi_adjust_cfa_offset 8
	pushq	%r15
	.cfi_adjust_cfa_offset 8
	pushq	$19
	.cfi_adjust_cfa_offset 8
	leaq	568(%rsp), %rax
	pushq	%rax
	.cfi_adjust_cfa_offset 8
	pushq	$19
	.cfi_adjust_cfa_offset 8
	leaq	424(%rsp), %rax
	pushq	%rax
	.cfi_adjust_cfa_offset 8
	pushq	$19
	.cfi_adjust_cfa_offset 8
	leaq	120(%rsp), %rax
	pushq	%rax
	.cfi_adjust_cfa_offset 8
	pushq	$19
	.cfi_adjust_cfa_offset 8
	leaq	1256(%rsp), %r15
	pushq	%r15
	.cfi_adjust_cfa_offset 8
	callq	fmonty
	addq	$112, %rsp
	.cfi_adjust_cfa_offset -112
	movl	$19, %esi
	movl	$19, %ecx
	movq	%r13, %rdi
	movq	%r12, %rdx
	movq	%rbp, %r8
	movl	%ebx, %r9d
	callq	swap_conditional
	movl	$19, %esi
	movl	$19, %ecx
	leaq	192(%rsp), %rdi
	movq	%r15, %rdx
	movq	%rbp, %r8
	movl	%ebx, %r9d
	callq	swap_conditional
	leal	(%r14,%r14), %eax
	movzbl	%al, %ebp
	shrq	$7, %rbp
	movl	$19, %esi
	movl	$19, %ecx
	movq	%r13, %rdi
	movq	%r12, %rdx
	movq	%rbp, %r8
	movl	%ebx, %r9d
	callq	swap_conditional
	movl	$19, %esi
	movl	$19, %ecx
	leaq	192(%rsp), %rdi
	movq	%r15, %rdx
	movq	%r15, %r13
	movq	%rbp, %r8
	movl	%ebx, %r9d
	callq	swap_conditional
	subq	$8, %rsp
	.cfi_adjust_cfa_offset 8
	movl	$19, %esi
	movl	$19, %ecx
	movl	$19, %r9d
	leaq	40(%rsp), %rdi
	leaq	360(%rsp), %r15
	movq	%r15, %rdx
	leaq	520(%rsp), %r12
	movq	%r12, %r8
	pushq	%rbx
	.cfi_adjust_cfa_offset 8
	movq	1400(%rsp), %rax
	pushq	%rax
	.cfi_adjust_cfa_offset 8
	movq	1400(%rsp), %rax
	pushq	%rax
	.cfi_adjust_cfa_offset 8
	pushq	$19
	.cfi_adjust_cfa_offset 8
	pushq	%r13
	.cfi_adjust_cfa_offset 8
	pushq	$19
	.cfi_adjust_cfa_offset 8
	leaq	888(%rsp), %rax
	pushq	%rax
	.cfi_adjust_cfa_offset 8
	pushq	$19
	.cfi_adjust_cfa_offset 8
	leaq	264(%rsp), %rax
	pushq	%rax
	.cfi_adjust_cfa_offset 8
	pushq	$19
	.cfi_adjust_cfa_offset 8
	leaq	760(%rsp), %rax
	pushq	%rax
	.cfi_adjust_cfa_offset 8
	pushq	$19
	.cfi_adjust_cfa_offset 8
	leaq	1096(%rsp), %r13
	pushq	%r13
	.cfi_adjust_cfa_offset 8
	callq	fmonty
	addq	$112, %rsp
	.cfi_adjust_cfa_offset -112
	movl	$19, %esi
	movl	$19, %ecx
	leaq	32(%rsp), %rdi
	movq	%r12, %rdx
	movq	%rbp, %r8
	movl	%ebx, %r9d
	callq	swap_conditional
	movl	$19, %esi
	movl	$19, %ecx
	movq	%r15, %rdi
	movq	%r13, %rdx
	movq	%rbp, %r8
	movl	%ebx, %r9d
	callq	swap_conditional
	shll	$2, %r14d
	movzbl	%r14b, %ebp
	shrq	$7, %rbp
	movl	$19, %esi
	movl	$19, %ecx
	leaq	32(%rsp), %rdi
	movq	%r12, %rdx
	movq	%rbp, %r8
	movl	%ebx, %r9d
	callq	swap_conditional
	movl	$19, %esi
	movl	$19, %ecx
	movq	%r15, %rdi
	movq	%r15, %r14
	movq	%r13, %rdx
	movq	%rbp, %r8
	movl	%ebx, %r9d
	callq	swap_conditional
	subq	$8, %rsp
	.cfi_adjust_cfa_offset 8
	movl	$19, %esi
	movl	$19, %ecx
	movl	$19, %r9d
	leaq	680(%rsp), %r12
	movq	%r12, %rdi
	leaq	200(%rsp), %rdx
	leaq	840(%rsp), %r15
	movq	%r15, %r8
	pushq	%rbx
	.cfi_adjust_cfa_offset 8
	pushq	1400(%rsp)
	.cfi_adjust_cfa_offset 8
	pushq	1400(%rsp)
	.cfi_adjust_cfa_offset 8
	pushq	$19
	.cfi_adjust_cfa_offset 8
	pushq	%r13
	.cfi_adjust_cfa_offset 8
	pushq	$19
	.cfi_adjust_cfa_offset 8
	leaq	568(%rsp), %rax
	pushq	%rax
	.cfi_adjust_cfa_offset 8
	pushq	$19
	.cfi_adjust_cfa_offset 8
	pushq	%r14
	.cfi_adjust_cfa_offset 8
	pushq	$19
	.cfi_adjust_cfa_offset 8
	leaq	120(%rsp), %rax
	pushq	%rax
	.cfi_adjust_cfa_offset 8
	pushq	$19
	.cfi_adjust_cfa_offset 8
	leaq	1256(%rsp), %r14
	pushq	%r14
	.cfi_adjust_cfa_offset 8
	callq	fmonty
	addq	$112, %rsp
	.cfi_adjust_cfa_offset -112
	movl	$19, %esi
	movl	$19, %ecx
	movq	%r12, %rdi
	movq	%r15, %rdx
	movq	%rbp, %r8
	movl	%ebx, %r9d
	callq	swap_conditional
	movl	$19, %esi
	movl	$19, %ecx
	leaq	192(%rsp), %rdi
	movq	%rdi, %r13
	movq	%r14, %rdx
	movq	%rbp, %r8
	movl	%ebx, %r9d
	callq	swap_conditional
	movq	8(%rsp), %rax           # 8-byte Reload
	addq	$15, %rax
	cmpq	$15, 16(%rsp)           # 8-byte Folded Reload
	leaq	24(%rsp), %rcx
	cmovgq	%rax, %rcx
	cmpb	$0, 1392(%rsp)
	cmovneq	%rax, %rcx
	movzbl	(%rcx), %ebp
	movq	%rbp, (%rsp)            # 8-byte Spill
	shrq	$7, %rbp
	movl	$19, %esi
	movl	$19, %ecx
	movq	%r12, %rdi
	movq	%r15, %rdx
	movq	%rbp, %r8
	movl	%ebx, %r9d
	callq	swap_conditional
	movl	$19, %esi
	movl	$19, %ecx
	movq	%r13, %rdi
	movq	%r13, %r15
	movq	%r14, %rdx
	movq	%r14, %r13
	movq	%rbp, %r8
	movl	%ebx, %r9d
	callq	swap_conditional
	subq	$8, %rsp
	.cfi_adjust_cfa_offset 8
	movl	$19, %esi
	movl	$19, %ecx
	movl	$19, %r9d
	leaq	40(%rsp), %rdi
	leaq	360(%rsp), %r14
	movq	%r14, %rdx
	leaq	520(%rsp), %r12
	movq	%r12, %r8
	pushq	%rbx
	.cfi_adjust_cfa_offset 8
	movq	1400(%rsp), %rax
	pushq	%rax
	.cfi_adjust_cfa_offset 8
	movq	1400(%rsp), %rax
	pushq	%rax
	.cfi_adjust_cfa_offset 8
	pushq	$19
	.cfi_adjust_cfa_offset 8
	pushq	%r13
	.cfi_adjust_cfa_offset 8
	pushq	$19
	.cfi_adjust_cfa_offset 8
	leaq	888(%rsp), %rax
	pushq	%rax
	.cfi_adjust_cfa_offset 8
	pushq	$19
	.cfi_adjust_cfa_offset 8
	pushq	%r15
	.cfi_adjust_cfa_offset 8
	pushq	$19
	.cfi_adjust_cfa_offset 8
	leaq	760(%rsp), %rax
	pushq	%rax
	.cfi_adjust_cfa_offset 8
	pushq	$19
	.cfi_adjust_cfa_offset 8
	leaq	1096(%rsp), %r13
	pushq	%r13
	.cfi_adjust_cfa_offset 8
	callq	fmonty
	addq	$112, %rsp
	.cfi_adjust_cfa_offset -112
	movl	$19, %esi
	movl	$19, %ecx
	leaq	32(%rsp), %r15
	movq	%r15, %rdi
	movq	%r12, %rdx
	movq	%rbp, %r8
	movl	%ebx, %r9d
	callq	swap_conditional
	movl	$19, %esi
	movl	$19, %ecx
	movq	%r14, %rdi
	movq	%r14, %r12
	movq	%r13, %rdx
	movq	%rbp, %r8
	movl	%ebx, %r9d
	callq	swap_conditional
	movq	(%rsp), %rax            # 8-byte Reload
	addl	%eax, %eax
	movzbl	%al, %ecx
	movq	%rcx, (%rsp)            # 8-byte Spill
	movzbl	%al, %ebp
	shrq	$7, %rbp
	movl	$19, %esi
	movl	$19, %ecx
	movq	%r15, %rdi
	leaq	512(%rsp), %r14
	movq	%r14, %rdx
	movq	%rbp, %r8
	movl	%ebx, %r9d
	callq	swap_conditional
	movl	$19, %esi
	movl	$19, %ecx
	movq	%r12, %rdi
	movq	%r13, %rdx
	movq	%r13, %r12
	movq	%rbp, %r8
	movl	%ebx, %r9d
	callq	swap_conditional
	subq	$8, %rsp
	.cfi_adjust_cfa_offset 8
	movl	$19, %esi
	movl	$19, %ecx
	movl	$19, %r9d
	leaq	680(%rsp), %r15
	movq	%r15, %rdi
	leaq	200(%rsp), %rdx
	leaq	840(%rsp), %r13
	movq	%r13, %r8
	pushq	%rbx
	.cfi_adjust_cfa_offset 8
	pushq	1400(%rsp)
	.cfi_adjust_cfa_offset 8
	pushq	1400(%rsp)
	.cfi_adjust_cfa_offset 8
	pushq	$19
	.cfi_adjust_cfa_offset 8
	pushq	%r12
	.cfi_adjust_cfa_offset 8
	pushq	$19
	.cfi_adjust_cfa_offset 8
	pushq	%r14
	.cfi_adjust_cfa_offset 8
	pushq	$19
	.cfi_adjust_cfa_offset 8
	leaq	424(%rsp), %rax
	pushq	%rax
	.cfi_adjust_cfa_offset 8
	pushq	$19
	.cfi_adjust_cfa_offset 8
	leaq	120(%rsp), %rax
	pushq	%rax
	.cfi_adjust_cfa_offset 8
	pushq	$19
	.cfi_adjust_cfa_offset 8
	leaq	1256(%rsp), %r12
	pushq	%r12
	.cfi_adjust_cfa_offset 8
	callq	fmonty
	addq	$112, %rsp
	.cfi_adjust_cfa_offset -112
	movl	$19, %esi
	movl	$19, %ecx
	movq	%r15, %rdi
	movq	%r13, %rdx
	movq	%r13, %r15
	movq	%rbp, %r8
	movl	%ebx, %r9d
	callq	swap_conditional
	movl	$19, %esi
	movl	$19, %ecx
	leaq	192(%rsp), %rdi
	movq	%rdi, %r14
	movq	%r12, %rdx
	movq	%r12, %r13
	movq	%rbp, %r8
	movl	%ebx, %r9d
	callq	swap_conditional
	movq	(%rsp), %rax            # 8-byte Reload
	addl	%eax, %eax
	movzbl	%al, %ebp
	shrq	$7, %rbp
	movl	$19, %esi
	movl	$19, %ecx
	leaq	672(%rsp), %r12
	movq	%r12, %rdi
	movq	%r15, %rdx
	movq	%rbp, %r8
	movl	%ebx, %r9d
	callq	swap_conditional
	movl	$19, %esi
	movl	$19, %ecx
	movq	%r14, %rdi
	movq	%r13, %rdx
	movq	%r13, %r14
	movq	%rbp, %r8
	movl	%ebx, %r9d
	callq	swap_conditional
	subq	$8, %rsp
	.cfi_adjust_cfa_offset 8
	movl	$19, %esi
	movl	$19, %ecx
	movl	$19, %r9d
	leaq	40(%rsp), %r15
	movq	%r15, %rdi
	leaq	360(%rsp), %rdx
	leaq	520(%rsp), %r13
	movq	%r13, %r8
	pushq	%rbx
	.cfi_adjust_cfa_offset 8
	pushq	1400(%rsp)
	.cfi_adjust_cfa_offset 8
	pushq	1400(%rsp)
	.cfi_adjust_cfa_offset 8
	pushq	$19
	.cfi_adjust_cfa_offset 8
	pushq	%r14
	.cfi_adjust_cfa_offset 8
	pushq	$19
	.cfi_adjust_cfa_offset 8
	leaq	888(%rsp), %rax
	pushq	%rax
	.cfi_adjust_cfa_offset 8
	pushq	$19
	.cfi_adjust_cfa_offset 8
	leaq	264(%rsp), %rax
	pushq	%rax
	.cfi_adjust_cfa_offset 8
	pushq	$19
	.cfi_adjust_cfa_offset 8
	pushq	%r12
	.cfi_adjust_cfa_offset 8
	pushq	$19
	.cfi_adjust_cfa_offset 8
	leaq	1096(%rsp), %r12
	pushq	%r12
	.cfi_adjust_cfa_offset 8
	callq	fmonty
	addq	$112, %rsp
	.cfi_adjust_cfa_offset -112
	movl	$19, %esi
	movl	$19, %ecx
	movq	%r15, %rdi
	movq	%r13, %rdx
	movq	%rbp, %r8
	movl	%ebx, %r9d
	callq	swap_conditional
	movl	$19, %esi
	movl	$19, %ecx
	leaq	352(%rsp), %rdi
	movq	%rdi, %r14
	movq	%r12, %rdx
	movq	%rbp, %r8
	movl	%ebx, %r9d
	callq	swap_conditional
	movq	(%rsp), %rax            # 8-byte Reload
	shll	$2, %eax
	movzbl	%al, %ecx
	movq	%rcx, (%rsp)            # 8-byte Spill
	movzbl	%al, %ebp
	shrq	$7, %rbp
	movl	$19, %esi
	movl	$19, %ecx
	movq	%r15, %rdi
	movq	%r13, %rdx
	movq	%rbp, %r8
	movl	%ebx, %r9d
	callq	swap_conditional
	movl	$19, %esi
	movl	$19, %ecx
	movq	%r14, %rdi
	movq	%r12, %rdx
	movq	%r12, %r15
	movq	%rbp, %r8
	movl	%ebx, %r9d
	callq	swap_conditional
	subq	$8, %rsp
	.cfi_adjust_cfa_offset 8
	movl	$19, %esi
	movl	$19, %ecx
	movl	$19, %r9d
	leaq	680(%rsp), %r12
	movq	%r12, %rdi
	leaq	200(%rsp), %rdx
	leaq	840(%rsp), %r13
	movq	%r13, %r8
	pushq	%rbx
	.cfi_adjust_cfa_offset 8
	movq	1400(%rsp), %rax
	pushq	%rax
	.cfi_adjust_cfa_offset 8
	movq	1400(%rsp), %rax
	pushq	%rax
	.cfi_adjust_cfa_offset 8
	pushq	$19
	.cfi_adjust_cfa_offset 8
	pushq	%r15
	.cfi_adjust_cfa_offset 8
	pushq	$19
	.cfi_adjust_cfa_offset 8
	leaq	568(%rsp), %rax
	pushq	%rax
	.cfi_adjust_cfa_offset 8
	pushq	$19
	.cfi_adjust_cfa_offset 8
	pushq	%r14
	.cfi_adjust_cfa_offset 8
	pushq	$19
	.cfi_adjust_cfa_offset 8
	leaq	120(%rsp), %rax
	pushq	%rax
	.cfi_adjust_cfa_offset 8
	pushq	$19
	.cfi_adjust_cfa_offset 8
	leaq	1256(%rsp), %r14
	pushq	%r14
	.cfi_adjust_cfa_offset 8
	callq	fmonty
	addq	$112, %rsp
	.cfi_adjust_cfa_offset -112
	movl	$19, %esi
	movl	$19, %ecx
	movq	%r12, %rdi
	movq	%r13, %rdx
	movq	%rbp, %r8
	movl	%ebx, %r9d
	callq	swap_conditional
	movl	$19, %esi
	movl	$19, %ecx
	leaq	192(%rsp), %rdi
	movq	%rdi, %r15
	movq	%r14, %rdx
	movq	%rbp, %r8
	movl	%ebx, %r9d
	callq	swap_conditional
	movq	(%rsp), %rax            # 8-byte Reload
	addl	%eax, %eax
	movzbl	%al, %ebp
	shrq	$7, %rbp
	movl	$19, %esi
	movl	$19, %ecx
	movq	%r12, %rdi
	movq	%r13, %rdx
	movq	%rbp, %r8
	movl	%ebx, %r9d
	callq	swap_conditional
	movl	$19, %esi
	movl	$19, %ecx
	movq	%r15, %rdi
	movq	%r15, %r12
	movq	%r14, %rdx
	movq	%r14, %r15
	movq	%rbp, %r8
	movl	%ebx, %r9d
	callq	swap_conditional
	subq	$8, %rsp
	.cfi_adjust_cfa_offset 8
	movl	$19, %esi
	movl	$19, %ecx
	movl	$19, %r9d
	leaq	40(%rsp), %rdi
	leaq	360(%rsp), %r14
	movq	%r14, %rdx
	leaq	520(%rsp), %r13
	movq	%r13, %r8
	pushq	%rbx
	.cfi_adjust_cfa_offset 8
	movq	1400(%rsp), %rax
	pushq	%rax
	.cfi_adjust_cfa_offset 8
	movq	1400(%rsp), %rax
	pushq	%rax
	.cfi_adjust_cfa_offset 8
	pushq	$19
	.cfi_adjust_cfa_offset 8
	pushq	%r15
	.cfi_adjust_cfa_offset 8
	pushq	$19
	.cfi_adjust_cfa_offset 8
	leaq	888(%rsp), %rax
	pushq	%rax
	.cfi_adjust_cfa_offset 8
	pushq	$19
	.cfi_adjust_cfa_offset 8
	pushq	%r12
	.cfi_adjust_cfa_offset 8
	pushq	$19
	.cfi_adjust_cfa_offset 8
	leaq	760(%rsp), %rax
	pushq	%rax
	.cfi_adjust_cfa_offset 8
	pushq	$19
	.cfi_adjust_cfa_offset 8
	leaq	1096(%rsp), %r12
	pushq	%r12
	.cfi_adjust_cfa_offset 8
	callq	fmonty
	addq	$112, %rsp
	.cfi_adjust_cfa_offset -112
	movl	$19, %esi
	movl	$19, %ecx
	leaq	32(%rsp), %rdi
	movq	%r13, %rdx
	movq	%rbp, %r8
	movl	%ebx, %r9d
	callq	swap_conditional
	movl	$19, %esi
	movl	$19, %ecx
	movq	%r14, %rdi
	movq	%r12, %rdx
	movq	%rbp, %r8
	movl	%ebx, %r9d
	callq	swap_conditional
	movq	(%rsp), %rax            # 8-byte Reload
	shll	$2, %eax
	movzbl	%al, %ebp
	movq	%rbp, (%rsp)            # 8-byte Spill
	shrq	$7, %rbp
	movl	$19, %esi
	movl	$19, %ecx
	leaq	32(%rsp), %rdi
	movq	%r13, %rdx
	movq	%rbp, %r8
	movl	%ebx, %r9d
	callq	swap_conditional
	movl	$19, %esi
	movl	$19, %ecx
	movq	%r14, %rdi
	movq	%r14, %r15
	movq	%r12, %rdx
	movq	%r12, %r14
	movq	%rbp, %r8
	movl	%ebx, %r9d
	callq	swap_conditional
	subq	$8, %rsp
	.cfi_adjust_cfa_offset 8
	movl	$19, %esi
	movl	$19, %ecx
	movl	$19, %r9d
	leaq	680(%rsp), %r12
	movq	%r12, %rdi
	leaq	200(%rsp), %rdx
	leaq	840(%rsp), %r13
	movq	%r13, %r8
	pushq	%rbx
	.cfi_adjust_cfa_offset 8
	pushq	1400(%rsp)
	.cfi_adjust_cfa_offset 8
	pushq	1400(%rsp)
	.cfi_adjust_cfa_offset 8
	pushq	$19
	.cfi_adjust_cfa_offset 8
	pushq	%r14
	.cfi_adjust_cfa_offset 8
	pushq	$19
	.cfi_adjust_cfa_offset 8
	leaq	568(%rsp), %rax
	pushq	%rax
	.cfi_adjust_cfa_offset 8
	pushq	$19
	.cfi_adjust_cfa_offset 8
	pushq	%r15
	.cfi_adjust_cfa_offset 8
	pushq	$19
	.cfi_adjust_cfa_offset 8
	leaq	120(%rsp), %rax
	pushq	%rax
	.cfi_adjust_cfa_offset 8
	pushq	$19
	.cfi_adjust_cfa_offset 8
	leaq	1256(%rsp), %r15
	pushq	%r15
	.cfi_adjust_cfa_offset 8
	callq	fmonty
	addq	$112, %rsp
	.cfi_adjust_cfa_offset -112
	movl	$19, %esi
	movl	$19, %ecx
	movq	%r12, %rdi
	movq	%r13, %rdx
	movq	%rbp, %r8
	movl	%ebx, %r9d
	callq	swap_conditional
	movl	$19, %esi
	movl	$19, %ecx
	leaq	192(%rsp), %rdi
	movq	%r15, %rdx
	movq	%rbp, %r8
	movl	%ebx, %r9d
	callq	swap_conditional
	movq	(%rsp), %r14            # 8-byte Reload
	leal	(%r14,%r14), %eax
	movzbl	%al, %ebp
	shrq	$7, %rbp
	movl	$19, %esi
	movl	$19, %ecx
	movq	%r12, %rdi
	movq	%r13, %rdx
	movq	%rbp, %r8
	movl	%ebx, %r9d
	callq	swap_conditional
	movl	$19, %esi
	movl	$19, %ecx
	leaq	192(%rsp), %rdi
	movq	%r15, %rdx
	movq	%r15, %r12
	movq	%rbp, %r8
	movl	%ebx, %r9d
	callq	swap_conditional
	subq	$8, %rsp
	.cfi_adjust_cfa_offset 8
	movl	$19, %esi
	movl	$19, %ecx
	movl	$19, %r9d
	leaq	40(%rsp), %rdi
	movq	%rdi, %r15
	leaq	360(%rsp), %rdx
	leaq	520(%rsp), %r13
	movq	%r13, %r8
	pushq	%rbx
	.cfi_adjust_cfa_offset 8
	movq	1400(%rsp), %rax
	pushq	%rax
	.cfi_adjust_cfa_offset 8
	movq	1400(%rsp), %rax
	pushq	%rax
	.cfi_adjust_cfa_offset 8
	pushq	$19
	.cfi_adjust_cfa_offset 8
	pushq	%r12
	.cfi_adjust_cfa_offset 8
	pushq	$19
	.cfi_adjust_cfa_offset 8
	leaq	888(%rsp), %rax
	pushq	%rax
	.cfi_adjust_cfa_offset 8
	pushq	$19
	.cfi_adjust_cfa_offset 8
	leaq	264(%rsp), %rax
	pushq	%rax
	.cfi_adjust_cfa_offset 8
	pushq	$19
	.cfi_adjust_cfa_offset 8
	leaq	760(%rsp), %rax
	pushq	%rax
	.cfi_adjust_cfa_offset 8
	pushq	$19
	.cfi_adjust_cfa_offset 8
	leaq	1096(%rsp), %r12
	pushq	%r12
	.cfi_adjust_cfa_offset 8
	callq	fmonty
	addq	$112, %rsp
	.cfi_adjust_cfa_offset -112
	movl	$19, %esi
	movl	$19, %ecx
	movq	%r15, %rdi
	movq	%r13, %rdx
	movq	%rbp, %r8
	movl	%ebx, %r9d
	callq	swap_conditional
	movl	$19, %esi
	movl	$19, %ecx
	leaq	352(%rsp), %rdi
	movq	%r12, %rdx
	movq	%rbp, %r8
	movl	%ebx, %r9d
	callq	swap_conditional
	movq	%r14, %rax
	shll	$2, %eax
	movzbl	%al, %ebp
	shrq	$7, %rbp
	movl	$19, %esi
	movl	$19, %ecx
	movq	%r15, %rdi
	movq	%r13, %rdx
	movq	%rbp, %r8
	movl	%ebx, %r9d
	callq	swap_conditional
	movl	$19, %esi
	movl	$19, %ecx
	leaq	352(%rsp), %rdi
	movq	%rdi, %r14
	movq	%r12, %rdx
	movq	%rbp, %r8
	movl	%ebx, %r9d
	callq	swap_conditional
	subq	$8, %rsp
	.cfi_adjust_cfa_offset 8
	movl	$19, %esi
	movl	$19, %ecx
	movl	$19, %r9d
	leaq	680(%rsp), %r15
	movq	%r15, %rdi
	leaq	200(%rsp), %rdx
	leaq	840(%rsp), %r13
	movq	%r13, %r8
	pushq	%rbx
	.cfi_adjust_cfa_offset 8
	pushq	1400(%rsp)
	.cfi_adjust_cfa_offset 8
	pushq	1400(%rsp)
	.cfi_adjust_cfa_offset 8
	pushq	$19
	.cfi_adjust_cfa_offset 8
	pushq	%r12
	.cfi_adjust_cfa_offset 8
	pushq	$19
	.cfi_adjust_cfa_offset 8
	leaq	568(%rsp), %rax
	pushq	%rax
	.cfi_adjust_cfa_offset 8
	pushq	$19
	.cfi_adjust_cfa_offset 8
	pushq	%r14
	.cfi_adjust_cfa_offset 8
	pushq	$19
	.cfi_adjust_cfa_offset 8
	leaq	120(%rsp), %rax
	pushq	%rax
	.cfi_adjust_cfa_offset 8
	pushq	$19
	.cfi_adjust_cfa_offset 8
	leaq	1256(%rsp), %r14
	pushq	%r14
	.cfi_adjust_cfa_offset 8
	callq	fmonty
	addq	$112, %rsp
	.cfi_adjust_cfa_offset -112
	movl	$19, %esi
	movl	$19, %ecx
	movq	%r15, %rdi
	movq	%r15, %r12
	movq	%r13, %rdx
	movq	%r13, %r15
	movq	%rbp, %r8
	movl	%ebx, %r9d
	callq	swap_conditional
	movl	$19, %esi
	movl	$19, %ecx
	leaq	192(%rsp), %rdi
	movq	%rdi, %r13
	movq	%r14, %rdx
	movq	%rbp, %r8
	movl	%ebx, %r9d
	callq	swap_conditional
	movq	8(%rsp), %rax           # 8-byte Reload
	addq	$14, %rax
	cmpq	$14, 16(%rsp)           # 8-byte Folded Reload
	leaq	24(%rsp), %rcx
	cmovgq	%rax, %rcx
	cmpb	$0, 1392(%rsp)
	cmovneq	%rax, %rcx
	movzbl	(%rcx), %ebp
	movq	%rbp, (%rsp)            # 8-byte Spill
	shrq	$7, %rbp
	movl	$19, %esi
	movl	$19, %ecx
	movq	%r12, %rdi
	movq	%r15, %rdx
	movq	%rbp, %r8
	movl	%ebx, %r9d
	callq	swap_conditional
	movl	$19, %esi
	movl	$19, %ecx
	movq	%r13, %rdi
	movq	%r13, %r12
	movq	%r14, %rdx
	movq	%r14, %r13
	movq	%rbp, %r8
	movl	%ebx, %r9d
	callq	swap_conditional
	subq	$8, %rsp
	.cfi_adjust_cfa_offset 8
	movl	$19, %esi
	movl	$19, %ecx
	movl	$19, %r9d
	leaq	40(%rsp), %rdi
	leaq	360(%rsp), %r14
	movq	%r14, %rdx
	leaq	520(%rsp), %r15
	movq	%r15, %r8
	pushq	%rbx
	.cfi_adjust_cfa_offset 8
	pushq	1400(%rsp)
	.cfi_adjust_cfa_offset 8
	pushq	1400(%rsp)
	.cfi_adjust_cfa_offset 8
	pushq	$19
	.cfi_adjust_cfa_offset 8
	pushq	%r13
	.cfi_adjust_cfa_offset 8
	pushq	$19
	.cfi_adjust_cfa_offset 8
	leaq	888(%rsp), %rax
	pushq	%rax
	.cfi_adjust_cfa_offset 8
	pushq	$19
	.cfi_adjust_cfa_offset 8
	pushq	%r12
	.cfi_adjust_cfa_offset 8
	pushq	$19
	.cfi_adjust_cfa_offset 8
	leaq	760(%rsp), %rax
	pushq	%rax
	.cfi_adjust_cfa_offset 8
	pushq	$19
	.cfi_adjust_cfa_offset 8
	leaq	1096(%rsp), %r12
	pushq	%r12
	.cfi_adjust_cfa_offset 8
	callq	fmonty
	addq	$112, %rsp
	.cfi_adjust_cfa_offset -112
	movl	$19, %esi
	movl	$19, %ecx
	leaq	32(%rsp), %r13
	movq	%r13, %rdi
	movq	%r15, %rdx
	movq	%rbp, %r8
	movl	%ebx, %r9d
	callq	swap_conditional
	movl	$19, %esi
	movl	$19, %ecx
	movq	%r14, %rdi
	movq	%r12, %rdx
	movq	%r12, %r15
	movq	%rbp, %r8
	movl	%ebx, %r9d
	callq	swap_conditional
	movq	(%rsp), %rax            # 8-byte Reload
	addl	%eax, %eax
	movzbl	%al, %ecx
	movq	%rcx, (%rsp)            # 8-byte Spill
	movzbl	%al, %ebp
	shrq	$7, %rbp
	movl	$19, %esi
	movl	$19, %ecx
	movq	%r13, %rdi
	leaq	512(%rsp), %r12
	movq	%r12, %rdx
	movq	%rbp, %r8
	movl	%ebx, %r9d
	callq	swap_conditional
	movl	$19, %esi
	movl	$19, %ecx
	movq	%r14, %rdi
	movq	%r15, %rdx
	movq	%r15, %r14
	movq	%rbp, %r8
	movl	%ebx, %r9d
	callq	swap_conditional
	subq	$8, %rsp
	.cfi_adjust_cfa_offset 8
	movl	$19, %esi
	movl	$19, %ecx
	movl	$19, %r9d
	leaq	680(%rsp), %r15
	movq	%r15, %rdi
	leaq	200(%rsp), %rdx
	leaq	840(%rsp), %r13
	movq	%r13, %r8
	pushq	%rbx
	.cfi_adjust_cfa_offset 8
	movq	1400(%rsp), %rax
	pushq	%rax
	.cfi_adjust_cfa_offset 8
	movq	1400(%rsp), %rax
	pushq	%rax
	.cfi_adjust_cfa_offset 8
	pushq	$19
	.cfi_adjust_cfa_offset 8
	pushq	%r14
	.cfi_adjust_cfa_offset 8
	pushq	$19
	.cfi_adjust_cfa_offset 8
	pushq	%r12
	.cfi_adjust_cfa_offset 8
	pushq	$19
	.cfi_adjust_cfa_offset 8
	leaq	424(%rsp), %rax
	pushq	%rax
	.cfi_adjust_cfa_offset 8
	pushq	$19
	.cfi_adjust_cfa_offset 8
	leaq	120(%rsp), %rax
	pushq	%rax
	.cfi_adjust_cfa_offset 8
	pushq	$19
	.cfi_adjust_cfa_offset 8
	leaq	1256(%rsp), %r12
	pushq	%r12
	.cfi_adjust_cfa_offset 8
	callq	fmonty
	addq	$112, %rsp
	.cfi_adjust_cfa_offset -112
	movl	$19, %esi
	movl	$19, %ecx
	movq	%r15, %rdi
	movq	%r13, %rdx
	movq	%rbp, %r8
	movl	%ebx, %r9d
	callq	swap_conditional
	movl	$19, %esi
	movl	$19, %ecx
	leaq	192(%rsp), %rdi
	movq	%rdi, %r13
	movq	%r12, %rdx
	movq	%rbp, %r8
	movl	%ebx, %r9d
	callq	swap_conditional
	movq	(%rsp), %r14            # 8-byte Reload
	leal	(%r14,%r14), %eax
	movzbl	%al, %ebp
	shrq	$7, %rbp
	movl	$19, %esi
	movl	$19, %ecx
	movq	%r15, %rdi
	leaq	832(%rsp), %rdx
	movq	%rbp, %r8
	movl	%ebx, %r9d
	callq	swap_conditional
	movl	$19, %esi
	movl	$19, %ecx
	movq	%r13, %rdi
	movq	%r13, %r15
	movq	%r12, %rdx
	movq	%rbp, %r8
	movl	%ebx, %r9d
	callq	swap_conditional
	subq	$8, %rsp
	.cfi_adjust_cfa_offset 8
	movl	$19, %esi
	movl	$19, %ecx
	movl	$19, %r9d
	leaq	40(%rsp), %rdi
	leaq	360(%rsp), %rdx
	leaq	520(%rsp), %r13
	movq	%r13, %r8
	pushq	%rbx
	.cfi_adjust_cfa_offset 8
	pushq	1400(%rsp)
	.cfi_adjust_cfa_offset 8
	pushq	1400(%rsp)
	.cfi_adjust_cfa_offset 8
	pushq	$19
	.cfi_adjust_cfa_offset 8
	pushq	%r12
	.cfi_adjust_cfa_offset 8
	pushq	$19
	.cfi_adjust_cfa_offset 8
	leaq	888(%rsp), %rax
	pushq	%rax
	.cfi_adjust_cfa_offset 8
	pushq	$19
	.cfi_adjust_cfa_offset 8
	pushq	%r15
	.cfi_adjust_cfa_offset 8
	pushq	$19
	.cfi_adjust_cfa_offset 8
	leaq	760(%rsp), %rax
	pushq	%rax
	.cfi_adjust_cfa_offset 8
	pushq	$19
	.cfi_adjust_cfa_offset 8
	leaq	1096(%rsp), %r15
	pushq	%r15
	.cfi_adjust_cfa_offset 8
	callq	fmonty
	addq	$112, %rsp
	.cfi_adjust_cfa_offset -112
	movl	$19, %esi
	movl	$19, %ecx
	leaq	32(%rsp), %r12
	movq	%r12, %rdi
	movq	%r13, %rdx
	movq	%rbp, %r8
	movl	%ebx, %r9d
	callq	swap_conditional
	movl	$19, %esi
	movl	$19, %ecx
	leaq	352(%rsp), %rdi
	movq	%rdi, %r13
	movq	%r15, %rdx
	movq	%rbp, %r8
	movl	%ebx, %r9d
	callq	swap_conditional
	movq	%r14, %rcx
	shll	$2, %ecx
	movzbl	%cl, %eax
	movq	%rax, (%rsp)            # 8-byte Spill
	movzbl	%cl, %ebp
	shrq	$7, %rbp
	movl	$19, %esi
	movl	$19, %ecx
	movq	%r12, %rdi
	leaq	512(%rsp), %r15
	movq	%r15, %rdx
	movq	%rbp, %r8
	movl	%ebx, %r9d
	callq	swap_conditional
	movl	$19, %esi
	movl	$19, %ecx
	movq	%r13, %rdi
	leaq	992(%rsp), %rdx
	movq	%rdx, %r14
	movq	%rbp, %r8
	movl	%ebx, %r9d
	callq	swap_conditional
	subq	$8, %rsp
	.cfi_adjust_cfa_offset 8
	movl	$19, %esi
	movl	$19, %ecx
	movl	$19, %r9d
	leaq	680(%rsp), %r12
	movq	%r12, %rdi
	leaq	200(%rsp), %rdx
	leaq	840(%rsp), %r13
	movq	%r13, %r8
	pushq	%rbx
	.cfi_adjust_cfa_offset 8
	pushq	1400(%rsp)
	.cfi_adjust_cfa_offset 8
	pushq	1400(%rsp)
	.cfi_adjust_cfa_offset 8
	pushq	$19
	.cfi_adjust_cfa_offset 8
	pushq	%r14
	.cfi_adjust_cfa_offset 8
	pushq	$19
	.cfi_adjust_cfa_offset 8
	pushq	%r15
	.cfi_adjust_cfa_offset 8
	pushq	$19
	.cfi_adjust_cfa_offset 8
	leaq	424(%rsp), %rax
	pushq	%rax
	.cfi_adjust_cfa_offset 8
	pushq	$19
	.cfi_adjust_cfa_offset 8
	leaq	120(%rsp), %rax
	pushq	%rax
	.cfi_adjust_cfa_offset 8
	pushq	$19
	.cfi_adjust_cfa_offset 8
	leaq	1256(%rsp), %r14
	pushq	%r14
	.cfi_adjust_cfa_offset 8
	callq	fmonty
	addq	$112, %rsp
	.cfi_adjust_cfa_offset -112
	movl	$19, %esi
	movl	$19, %ecx
	movq	%r12, %rdi
	movq	%r13, %rdx
	movq	%rbp, %r8
	movl	%ebx, %r9d
	callq	swap_conditional
	movl	$19, %esi
	movl	$19, %ecx
	leaq	192(%rsp), %rdi
	movq	%rdi, %r15
	movq	%r14, %rdx
	movq	%rbp, %r8
	movl	%ebx, %r9d
	callq	swap_conditional
	movq	(%rsp), %rax            # 8-byte Reload
	addl	%eax, %eax
	movzbl	%al, %ebp
	shrq	$7, %rbp
	movl	$19, %esi
	movl	$19, %ecx
	movq	%r12, %rdi
	movq	%r13, %rdx
	movq	%rbp, %r8
	movl	%ebx, %r9d
	callq	swap_conditional
	movl	$19, %esi
	movl	$19, %ecx
	movq	%r15, %rdi
	movq	%r15, %r12
	movq	%r14, %rdx
	movq	%r14, %r15
	movq	%rbp, %r8
	movl	%ebx, %r9d
	callq	swap_conditional
	subq	$8, %rsp
	.cfi_adjust_cfa_offset 8
	movl	$19, %esi
	movl	$19, %ecx
	movl	$19, %r9d
	leaq	40(%rsp), %rdi
	leaq	360(%rsp), %r13
	movq	%r13, %rdx
	leaq	520(%rsp), %r14
	movq	%r14, %r8
	pushq	%rbx
	.cfi_adjust_cfa_offset 8
	movq	1400(%rsp), %rax
	pushq	%rax
	.cfi_adjust_cfa_offset 8
	movq	1400(%rsp), %rax
	pushq	%rax
	.cfi_adjust_cfa_offset 8
	pushq	$19
	.cfi_adjust_cfa_offset 8
	pushq	%r15
	.cfi_adjust_cfa_offset 8
	pushq	$19
	.cfi_adjust_cfa_offset 8
	leaq	888(%rsp), %rax
	pushq	%rax
	.cfi_adjust_cfa_offset 8
	pushq	$19
	.cfi_adjust_cfa_offset 8
	pushq	%r12
	.cfi_adjust_cfa_offset 8
	pushq	$19
	.cfi_adjust_cfa_offset 8
	leaq	760(%rsp), %rax
	pushq	%rax
	.cfi_adjust_cfa_offset 8
	pushq	$19
	.cfi_adjust_cfa_offset 8
	leaq	1096(%rsp), %r12
	pushq	%r12
	.cfi_adjust_cfa_offset 8
	callq	fmonty
	addq	$112, %rsp
	.cfi_adjust_cfa_offset -112
	movl	$19, %esi
	movl	$19, %ecx
	leaq	32(%rsp), %r15
	movq	%r15, %rdi
	movq	%r14, %rdx
	movq	%rbp, %r8
	movl	%ebx, %r9d
	callq	swap_conditional
	movl	$19, %esi
	movl	$19, %ecx
	movq	%r13, %rdi
	movq	%r12, %rdx
	movq	%rbp, %r8
	movl	%ebx, %r9d
	callq	swap_conditional
	movq	(%rsp), %rax            # 8-byte Reload
	shll	$2, %eax
	movzbl	%al, %ebp
	movq	%rbp, (%rsp)            # 8-byte Spill
	shrq	$7, %rbp
	movl	$19, %esi
	movl	$19, %ecx
	movq	%r15, %rdi
	movq	%r14, %rdx
	movq	%rbp, %r8
	movl	%ebx, %r9d
	callq	swap_conditional
	movl	$19, %esi
	movl	$19, %ecx
	movq	%r13, %rdi
	movq	%r12, %rdx
	movq	%r12, %r15
	movq	%rbp, %r8
	movl	%ebx, %r9d
	callq	swap_conditional
	subq	$8, %rsp
	.cfi_adjust_cfa_offset 8
	movl	$19, %esi
	movl	$19, %ecx
	movl	$19, %r9d
	leaq	680(%rsp), %r12
	movq	%r12, %rdi
	leaq	200(%rsp), %rdx
	leaq	840(%rsp), %r14
	movq	%r14, %r8
	pushq	%rbx
	.cfi_adjust_cfa_offset 8
	pushq	1400(%rsp)
	.cfi_adjust_cfa_offset 8
	pushq	1400(%rsp)
	.cfi_adjust_cfa_offset 8
	pushq	$19
	.cfi_adjust_cfa_offset 8
	pushq	%r15
	.cfi_adjust_cfa_offset 8
	pushq	$19
	.cfi_adjust_cfa_offset 8
	leaq	568(%rsp), %rax
	pushq	%rax
	.cfi_adjust_cfa_offset 8
	pushq	$19
	.cfi_adjust_cfa_offset 8
	pushq	%r13
	.cfi_adjust_cfa_offset 8
	pushq	$19
	.cfi_adjust_cfa_offset 8
	leaq	120(%rsp), %rax
	pushq	%rax
	.cfi_adjust_cfa_offset 8
	pushq	$19
	.cfi_adjust_cfa_offset 8
	leaq	1256(%rsp), %r15
	pushq	%r15
	.cfi_adjust_cfa_offset 8
	callq	fmonty
	addq	$112, %rsp
	.cfi_adjust_cfa_offset -112
	movl	$19, %esi
	movl	$19, %ecx
	movq	%r12, %rdi
	movq	%r14, %rdx
	movq	%r14, %r13
	movq	%rbp, %r8
	movl	%ebx, %r9d
	callq	swap_conditional
	movl	$19, %esi
	movl	$19, %ecx
	leaq	192(%rsp), %r14
	movq	%r14, %rdi
	movq	%r15, %rdx
	movq	%rbp, %r8
	movl	%ebx, %r9d
	callq	swap_conditional
	movq	(%rsp), %rax            # 8-byte Reload
	addl	%eax, %eax
	movzbl	%al, %ebp
	shrq	$7, %rbp
	movl	$19, %esi
	movl	$19, %ecx
	movq	%r12, %rdi
	movq	%r13, %rdx
	movq	%rbp, %r8
	movl	%ebx, %r9d
	callq	swap_conditional
	movl	$19, %esi
	movl	$19, %ecx
	movq	%r14, %rdi
	movq	%r14, %r12
	movq	%r15, %rdx
	movq	%r15, %r14
	movq	%rbp, %r8
	movl	%ebx, %r9d
	callq	swap_conditional
	subq	$8, %rsp
	.cfi_adjust_cfa_offset 8
	movl	$19, %esi
	movl	$19, %ecx
	movl	$19, %r9d
	leaq	40(%rsp), %rdi
	movq	%rdi, %r15
	leaq	360(%rsp), %rdx
	leaq	520(%rsp), %r13
	movq	%r13, %r8
	pushq	%rbx
	.cfi_adjust_cfa_offset 8
	pushq	1400(%rsp)
	.cfi_adjust_cfa_offset 8
	pushq	1400(%rsp)
	.cfi_adjust_cfa_offset 8
	pushq	$19
	.cfi_adjust_cfa_offset 8
	pushq	%r14
	.cfi_adjust_cfa_offset 8
	pushq	$19
	.cfi_adjust_cfa_offset 8
	leaq	888(%rsp), %rax
	pushq	%rax
	.cfi_adjust_cfa_offset 8
	pushq	$19
	.cfi_adjust_cfa_offset 8
	pushq	%r12
	.cfi_adjust_cfa_offset 8
	pushq	$19
	.cfi_adjust_cfa_offset 8
	leaq	760(%rsp), %rax
	pushq	%rax
	.cfi_adjust_cfa_offset 8
	pushq	$19
	.cfi_adjust_cfa_offset 8
	leaq	1096(%rsp), %r12
	pushq	%r12
	.cfi_adjust_cfa_offset 8
	callq	fmonty
	addq	$112, %rsp
	.cfi_adjust_cfa_offset -112
	movl	$19, %esi
	movl	$19, %ecx
	movq	%r15, %rdi
	movq	%r13, %rdx
	movq	%rbp, %r8
	movl	%ebx, %r9d
	callq	swap_conditional
	movl	$19, %esi
	movl	$19, %ecx
	leaq	352(%rsp), %rdi
	movq	%rdi, %r14
	movq	%r12, %rdx
	movq	%rbp, %r8
	movl	%ebx, %r9d
	callq	swap_conditional
	movq	(%rsp), %rax            # 8-byte Reload
	shll	$2, %eax
	movzbl	%al, %ebp
	shrq	$7, %rbp
	movl	$19, %esi
	movl	$19, %ecx
	movq	%r15, %rdi
	movq	%r13, %rdx
	movq	%rbp, %r8
	movl	%ebx, %r9d
	callq	swap_conditional
	movl	$19, %esi
	movl	$19, %ecx
	movq	%r14, %rdi
	movq	%r12, %rdx
	movq	%rbp, %r8
	movl	%ebx, %r9d
	callq	swap_conditional
	subq	$8, %rsp
	.cfi_adjust_cfa_offset 8
	movl	$19, %esi
	movl	$19, %ecx
	movl	$19, %r9d
	leaq	680(%rsp), %r15
	movq	%r15, %rdi
	leaq	200(%rsp), %r13
	movq	%r13, %rdx
	leaq	840(%rsp), %r8
	pushq	%rbx
	.cfi_adjust_cfa_offset 8
	movq	1400(%rsp), %rax
	pushq	%rax
	.cfi_adjust_cfa_offset 8
	movq	1400(%rsp), %rax
	pushq	%rax
	.cfi_adjust_cfa_offset 8
	pushq	$19
	.cfi_adjust_cfa_offset 8
	pushq	%r12
	.cfi_adjust_cfa_offset 8
	pushq	$19
	.cfi_adjust_cfa_offset 8
	leaq	568(%rsp), %rax
	pushq	%rax
	.cfi_adjust_cfa_offset 8
	pushq	$19
	.cfi_adjust_cfa_offset 8
	pushq	%r14
	.cfi_adjust_cfa_offset 8
	pushq	$19
	.cfi_adjust_cfa_offset 8
	leaq	120(%rsp), %rax
	pushq	%rax
	.cfi_adjust_cfa_offset 8
	pushq	$19
	.cfi_adjust_cfa_offset 8
	leaq	1256(%rsp), %r14
	pushq	%r14
	.cfi_adjust_cfa_offset 8
	callq	fmonty
	addq	$112, %rsp
	.cfi_adjust_cfa_offset -112
	movl	$19, %esi
	movl	$19, %ecx
	movq	%r15, %rdi
	movq	%r15, %r12
	leaq	832(%rsp), %r15
	movq	%r15, %rdx
	movq	%rbp, %r8
	movl	%ebx, %r9d
	callq	swap_conditional
	movl	$19, %esi
	movl	$19, %ecx
	movq	%r13, %rdi
	movq	%r14, %rdx
	movq	%rbp, %r8
	movl	%ebx, %r9d
	callq	swap_conditional
	movq	8(%rsp), %rax           # 8-byte Reload
	addq	$13, %rax
	cmpq	$13, 16(%rsp)           # 8-byte Folded Reload
	leaq	24(%rsp), %rcx
	cmovgq	%rax, %rcx
	cmpb	$0, 1392(%rsp)
	cmovneq	%rax, %rcx
	movzbl	(%rcx), %ebp
	movq	%rbp, (%rsp)            # 8-byte Spill
	shrq	$7, %rbp
	movl	$19, %esi
	movl	$19, %ecx
	movq	%r12, %rdi
	movq	%r15, %rdx
	movq	%rbp, %r8
	movl	%ebx, %r9d
	callq	swap_conditional
	movl	$19, %esi
	movl	$19, %ecx
	movq	%r13, %rdi
	movq	%r13, %r12
	movq	%r14, %rdx
	movq	%r14, %r15
	movq	%rbp, %r8
	movl	%ebx, %r9d
	callq	swap_conditional
	subq	$8, %rsp
	.cfi_adjust_cfa_offset 8
	movl	$19, %esi
	movl	$19, %ecx
	movl	$19, %r9d
	leaq	40(%rsp), %rdi
	leaq	360(%rsp), %r14
	movq	%r14, %rdx
	leaq	520(%rsp), %r13
	movq	%r13, %r8
	pushq	%rbx
	.cfi_adjust_cfa_offset 8
	movq	1400(%rsp), %rax
	pushq	%rax
	.cfi_adjust_cfa_offset 8
	pushq	1400(%rsp)
	.cfi_adjust_cfa_offset 8
	pushq	$19
	.cfi_adjust_cfa_offset 8
	pushq	%r15
	.cfi_adjust_cfa_offset 8
	pushq	$19
	.cfi_adjust_cfa_offset 8
	leaq	888(%rsp), %rax
	pushq	%rax
	.cfi_adjust_cfa_offset 8
	pushq	$19
	.cfi_adjust_cfa_offset 8
	pushq	%r12
	.cfi_adjust_cfa_offset 8
	pushq	$19
	.cfi_adjust_cfa_offset 8
	leaq	760(%rsp), %rax
	pushq	%rax
	.cfi_adjust_cfa_offset 8
	pushq	$19
	.cfi_adjust_cfa_offset 8
	leaq	1096(%rsp), %r12
	pushq	%r12
	.cfi_adjust_cfa_offset 8
	callq	fmonty
	addq	$112, %rsp
	.cfi_adjust_cfa_offset -112
	movl	$19, %esi
	movl	$19, %ecx
	leaq	32(%rsp), %r15
	movq	%r15, %rdi
	movq	%r13, %rdx
	movq	%rbp, %r8
	movl	%ebx, %r9d
	callq	swap_conditional
	movl	$19, %esi
	movl	$19, %ecx
	movq	%r14, %rdi
	movq	%r12, %rdx
	movq	%rbp, %r8
	movl	%ebx, %r9d
	callq	swap_conditional
	movq	(%rsp), %rax            # 8-byte Reload
	addl	%eax, %eax
	movzbl	%al, %ecx
	movq	%rcx, (%rsp)            # 8-byte Spill
	movzbl	%al, %ebp
	shrq	$7, %rbp
	movl	$19, %esi
	movl	$19, %ecx
	movq	%r15, %rdi
	movq	%r13, %r15
	movq	%r13, %rdx
	movq	%rbp, %r8
	movl	%ebx, %r9d
	callq	swap_conditional
	movl	$19, %esi
	movl	$19, %ecx
	movq	%r14, %rdi
	movq	%r12, %rdx
	movq	%r12, %r14
	movq	%rbp, %r8
	movl	%ebx, %r9d
	callq	swap_conditional
	subq	$8, %rsp
	.cfi_adjust_cfa_offset 8
	movl	$19, %esi
	movl	$19, %ecx
	movl	$19, %r9d
	leaq	680(%rsp), %r13
	movq	%r13, %rdi
	leaq	200(%rsp), %rdx
	leaq	840(%rsp), %r12
	movq	%r12, %r8
	pushq	%rbx
	.cfi_adjust_cfa_offset 8
	movq	1400(%rsp), %rax
	pushq	%rax
	.cfi_adjust_cfa_offset 8
	movq	1400(%rsp), %rax
	pushq	%rax
	.cfi_adjust_cfa_offset 8
	pushq	$19
	.cfi_adjust_cfa_offset 8
	pushq	%r14
	.cfi_adjust_cfa_offset 8
	pushq	$19
	.cfi_adjust_cfa_offset 8
	pushq	%r15
	.cfi_adjust_cfa_offset 8
	pushq	$19
	.cfi_adjust_cfa_offset 8
	leaq	424(%rsp), %rax
	pushq	%rax
	.cfi_adjust_cfa_offset 8
	pushq	$19
	.cfi_adjust_cfa_offset 8
	leaq	120(%rsp), %rax
	pushq	%rax
	.cfi_adjust_cfa_offset 8
	pushq	$19
	.cfi_adjust_cfa_offset 8
	leaq	1256(%rsp), %r15
	pushq	%r15
	.cfi_adjust_cfa_offset 8
	callq	fmonty
	addq	$112, %rsp
	.cfi_adjust_cfa_offset -112
	movl	$19, %esi
	movl	$19, %ecx
	movq	%r13, %rdi
	movq	%r12, %rdx
	movq	%r12, %r14
	movq	%rbp, %r8
	movl	%ebx, %r9d
	callq	swap_conditional
	movl	$19, %esi
	movl	$19, %ecx
	leaq	192(%rsp), %rdi
	movq	%rdi, %r12
	movq	%r15, %rdx
	movq	%rbp, %r8
	movl	%ebx, %r9d
	callq	swap_conditional
	movq	(%rsp), %rax            # 8-byte Reload
	addl	%eax, %eax
	movzbl	%al, %ebp
	shrq	$7, %rbp
	movl	$19, %esi
	movl	$19, %ecx
	movq	%r13, %rdi
	movq	%r14, %r13
	movq	%r14, %rdx
	movq	%rbp, %r8
	movl	%ebx, %r9d
	callq	swap_conditional
	movl	$19, %esi
	movl	$19, %ecx
	movq	%r12, %rdi
	movq	%r15, %rdx
	movq	%r15, %r14
	movq	%rbp, %r8
	movl	%ebx, %r9d
	callq	swap_conditional
	subq	$8, %rsp
	.cfi_adjust_cfa_offset 8
	movl	$19, %esi
	movl	$19, %ecx
	movl	$19, %r9d
	leaq	40(%rsp), %rdi
	leaq	360(%rsp), %rdx
	leaq	520(%rsp), %r15
	movq	%r15, %r8
	pushq	%rbx
	.cfi_adjust_cfa_offset 8
	pushq	1400(%rsp)
	.cfi_adjust_cfa_offset 8
	pushq	1400(%rsp)
	.cfi_adjust_cfa_offset 8
	pushq	$19
	.cfi_adjust_cfa_offset 8
	pushq	%r14
	.cfi_adjust_cfa_offset 8
	pushq	$19
	.cfi_adjust_cfa_offset 8
	pushq	%r13
	.cfi_adjust_cfa_offset 8
	pushq	$19
	.cfi_adjust_cfa_offset 8
	pushq	%r12
	.cfi_adjust_cfa_offset 8
	pushq	$19
	.cfi_adjust_cfa_offset 8
	leaq	760(%rsp), %rax
	pushq	%rax
	.cfi_adjust_cfa_offset 8
	pushq	$19
	.cfi_adjust_cfa_offset 8
	leaq	1096(%rsp), %r13
	pushq	%r13
	.cfi_adjust_cfa_offset 8
	callq	fmonty
	addq	$112, %rsp
	.cfi_adjust_cfa_offset -112
	movl	$19, %esi
	movl	$19, %ecx
	leaq	32(%rsp), %r14
	movq	%r14, %rdi
	movq	%r15, %rdx
	movq	%r15, %r12
	movq	%rbp, %r8
	movl	%ebx, %r9d
	callq	swap_conditional
	movl	$19, %esi
	movl	$19, %ecx
	leaq	352(%rsp), %rdi
	movq	%rdi, %r15
	movq	%r13, %rdx
	movq	%rbp, %r8
	movl	%ebx, %r9d
	callq	swap_conditional
	movq	(%rsp), %rcx            # 8-byte Reload
	shll	$2, %ecx
	movzbl	%cl, %eax
	movq	%rax, (%rsp)            # 8-byte Spill
	movzbl	%cl, %ebp
	shrq	$7, %rbp
	movl	$19, %esi
	movl	$19, %ecx
	movq	%r14, %rdi
	movq	%r12, %rdx
	movq	%rbp, %r8
	movl	%ebx, %r9d
	callq	swap_conditional
	movl	$19, %esi
	movl	$19, %ecx
	movq	%r15, %rdi
	movq	%r13, %rdx
	movq	%r13, %r15
	movq	%rbp, %r8
	movl	%ebx, %r9d
	callq	swap_conditional
	subq	$8, %rsp
	.cfi_adjust_cfa_offset 8
	movl	$19, %esi
	movl	$19, %ecx
	movl	$19, %r9d
	leaq	680(%rsp), %r14
	movq	%r14, %rdi
	leaq	200(%rsp), %rdx
	leaq	840(%rsp), %r13
	movq	%r13, %r8
	pushq	%rbx
	.cfi_adjust_cfa_offset 8
	movq	1400(%rsp), %rax
	pushq	%rax
	.cfi_adjust_cfa_offset 8
	movq	1400(%rsp), %rax
	pushq	%rax
	.cfi_adjust_cfa_offset 8
	pushq	$19
	.cfi_adjust_cfa_offset 8
	pushq	%r15
	.cfi_adjust_cfa_offset 8
	pushq	$19
	.cfi_adjust_cfa_offset 8
	pushq	%r12
	.cfi_adjust_cfa_offset 8
	pushq	$19
	.cfi_adjust_cfa_offset 8
	leaq	424(%rsp), %rax
	pushq	%rax
	.cfi_adjust_cfa_offset 8
	pushq	$19
	.cfi_adjust_cfa_offset 8
	leaq	120(%rsp), %rax
	pushq	%rax
	.cfi_adjust_cfa_offset 8
	pushq	$19
	.cfi_adjust_cfa_offset 8
	leaq	1256(%rsp), %r12
	pushq	%r12
	.cfi_adjust_cfa_offset 8
	callq	fmonty
	addq	$112, %rsp
	.cfi_adjust_cfa_offset -112
	movl	$19, %esi
	movl	$19, %ecx
	movq	%r14, %rdi
	movq	%r13, %rdx
	movq	%r13, %r15
	movq	%rbp, %r8
	movl	%ebx, %r9d
	callq	swap_conditional
	movl	$19, %esi
	movl	$19, %ecx
	leaq	192(%rsp), %rdi
	movq	%rdi, %r13
	movq	%r12, %rdx
	movq	%rbp, %r8
	movl	%ebx, %r9d
	callq	swap_conditional
	movq	(%rsp), %rax            # 8-byte Reload
	addl	%eax, %eax
	movzbl	%al, %ebp
	shrq	$7, %rbp
	movl	$19, %esi
	movl	$19, %ecx
	movq	%r14, %rdi
	movq	%r15, %rdx
	movq	%rbp, %r8
	movl	%ebx, %r9d
	callq	swap_conditional
	movl	$19, %esi
	movl	$19, %ecx
	movq	%r13, %rdi
	movq	%r12, %rdx
	movq	%r12, %r14
	movq	%rbp, %r8
	movl	%ebx, %r9d
	callq	swap_conditional
	subq	$8, %rsp
	.cfi_adjust_cfa_offset 8
	movl	$19, %esi
	movl	$19, %ecx
	movl	$19, %r9d
	leaq	40(%rsp), %r12
	movq	%r12, %rdi
	leaq	360(%rsp), %r13
	movq	%r13, %rdx
	leaq	520(%rsp), %r15
	movq	%r15, %r8
	pushq	%rbx
	.cfi_adjust_cfa_offset 8
	movq	1400(%rsp), %rax
	pushq	%rax
	.cfi_adjust_cfa_offset 8
	movq	1400(%rsp), %rax
	pushq	%rax
	.cfi_adjust_cfa_offset 8
	pushq	$19
	.cfi_adjust_cfa_offset 8
	pushq	%r14
	.cfi_adjust_cfa_offset 8
	pushq	$19
	.cfi_adjust_cfa_offset 8
	leaq	888(%rsp), %rax
	pushq	%rax
	.cfi_adjust_cfa_offset 8
	pushq	$19
	.cfi_adjust_cfa_offset 8
	leaq	264(%rsp), %rax
	pushq	%rax
	.cfi_adjust_cfa_offset 8
	pushq	$19
	.cfi_adjust_cfa_offset 8
	leaq	760(%rsp), %rax
	pushq	%rax
	.cfi_adjust_cfa_offset 8
	pushq	$19
	.cfi_adjust_cfa_offset 8
	leaq	1096(%rsp), %r14
	pushq	%r14
	.cfi_adjust_cfa_offset 8
	callq	fmonty
	addq	$112, %rsp
	.cfi_adjust_cfa_offset -112
	movl	$19, %esi
	movl	$19, %ecx
	movq	%r12, %rdi
	movq	%r15, %rdx
	movq	%rbp, %r8
	movl	%ebx, %r9d
	callq	swap_conditional
	movl	$19, %esi
	movl	$19, %ecx
	movq	%r13, %rdi
	movq	%r14, %rdx
	movq	%r14, %r15
	movq	%rbp, %r8
	movl	%ebx, %r9d
	callq	swap_conditional
	movq	(%rsp), %rax            # 8-byte Reload
	shll	$2, %eax
	movzbl	%al, %r14d
	movq	%r14, %rbp
	shrq	$7, %rbp
	movl	$19, %esi
	movl	$19, %ecx
	movq	%r12, %rdi
	leaq	512(%rsp), %rdx
	movq	%rbp, %r8
	movl	%ebx, %r9d
	callq	swap_conditional
	movl	$19, %esi
	movl	$19, %ecx
	movq	%r13, %rdi
	movq	%r15, %rdx
	movq	%rbp, %r8
	movl	%ebx, %r9d
	callq	swap_conditional
	subq	$8, %rsp
	.cfi_adjust_cfa_offset 8
	movl	$19, %esi
	movl	$19, %ecx
	movl	$19, %r9d
	leaq	680(%rsp), %r13
	movq	%r13, %rdi
	leaq	200(%rsp), %rdx
	leaq	840(%rsp), %r12
	movq	%r12, %r8
	pushq	%rbx
	.cfi_adjust_cfa_offset 8
	pushq	1400(%rsp)
	.cfi_adjust_cfa_offset 8
	pushq	1400(%rsp)
	.cfi_adjust_cfa_offset 8
	pushq	$19
	.cfi_adjust_cfa_offset 8
	pushq	%r15
	.cfi_adjust_cfa_offset 8
	pushq	$19
	.cfi_adjust_cfa_offset 8
	leaq	568(%rsp), %rax
	pushq	%rax
	.cfi_adjust_cfa_offset 8
	pushq	$19
	.cfi_adjust_cfa_offset 8
	leaq	424(%rsp), %rax
	pushq	%rax
	.cfi_adjust_cfa_offset 8
	pushq	$19
	.cfi_adjust_cfa_offset 8
	leaq	120(%rsp), %rax
	pushq	%rax
	.cfi_adjust_cfa_offset 8
	pushq	$19
	.cfi_adjust_cfa_offset 8
	leaq	1256(%rsp), %r15
	pushq	%r15
	.cfi_adjust_cfa_offset 8
	callq	fmonty
	addq	$112, %rsp
	.cfi_adjust_cfa_offset -112
	movl	$19, %esi
	movl	$19, %ecx
	movq	%r13, %rdi
	movq	%r12, %rdx
	movq	%rbp, %r8
	movl	%ebx, %r9d
	callq	swap_conditional
	movl	$19, %esi
	movl	$19, %ecx
	leaq	192(%rsp), %rdi
	movq	%rdi, %r12
	movq	%r15, %rdx
	movq	%rbp, %r8
	movl	%ebx, %r9d
	callq	swap_conditional
	leal	(%r14,%r14), %eax
	movzbl	%al, %ebp
	shrq	$7, %rbp
	movl	$19, %esi
	movl	$19, %ecx
	movq	%r13, %rdi
	leaq	832(%rsp), %rdx
	movq	%rbp, %r8
	movl	%ebx, %r9d
	callq	swap_conditional
	movl	$19, %esi
	movl	$19, %ecx
	movq	%r12, %rdi
	movq	%r15, %rdx
	movq	%r15, %r12
	movq	%rbp, %r8
	movl	%ebx, %r9d
	callq	swap_conditional
	subq	$8, %rsp
	.cfi_adjust_cfa_offset 8
	movl	$19, %esi
	movl	$19, %ecx
	movl	$19, %r9d
	leaq	40(%rsp), %r13
	movq	%r13, %rdi
	leaq	360(%rsp), %rdx
	leaq	520(%rsp), %r15
	movq	%r15, %r8
	pushq	%rbx
	.cfi_adjust_cfa_offset 8
	pushq	1400(%rsp)
	.cfi_adjust_cfa_offset 8
	pushq	1400(%rsp)
	.cfi_adjust_cfa_offset 8
	pushq	$19
	.cfi_adjust_cfa_offset 8
	pushq	%r12
	.cfi_adjust_cfa_offset 8
	pushq	$19
	.cfi_adjust_cfa_offset 8
	leaq	888(%rsp), %rax
	pushq	%rax
	.cfi_adjust_cfa_offset 8
	pushq	$19
	.cfi_adjust_cfa_offset 8
	leaq	264(%rsp), %rax
	pushq	%rax
	.cfi_adjust_cfa_offset 8
	pushq	$19
	.cfi_adjust_cfa_offset 8
	leaq	760(%rsp), %rax
	pushq	%rax
	.cfi_adjust_cfa_offset 8
	pushq	$19
	.cfi_adjust_cfa_offset 8
	leaq	1096(%rsp), %r12
	pushq	%r12
	.cfi_adjust_cfa_offset 8
	callq	fmonty
	addq	$112, %rsp
	.cfi_adjust_cfa_offset -112
	movl	$19, %esi
	movl	$19, %ecx
	movq	%r13, %rdi
	movq	%r15, %rdx
	movq	%rbp, %r8
	movl	%ebx, %r9d
	callq	swap_conditional
	movl	$19, %esi
	movl	$19, %ecx
	leaq	352(%rsp), %rdi
	movq	%rdi, %r13
	movq	%r12, %rdx
	movq	%rbp, %r8
	movl	%ebx, %r9d
	callq	swap_conditional
	shll	$2, %r14d
	movzbl	%r14b, %ebp
	shrq	$7, %rbp
	movl	$19, %esi
	movl	$19, %ecx
	leaq	32(%rsp), %rdi
	movq	%r15, %rdx
	movq	%rbp, %r8
	movl	%ebx, %r9d
	callq	swap_conditional
	movl	$19, %esi
	movl	$19, %ecx
	movq	%r13, %rdi
	movq	%r13, %r14
	movq	%r12, %rdx
	movq	%rbp, %r8
	movl	%ebx, %r9d
	callq	swap_conditional
	subq	$8, %rsp
	.cfi_adjust_cfa_offset 8
	movl	$19, %esi
	movl	$19, %ecx
	movl	$19, %r9d
	leaq	680(%rsp), %r13
	movq	%r13, %rdi
	leaq	200(%rsp), %rdx
	leaq	840(%rsp), %r8
	pushq	%rbx
	.cfi_adjust_cfa_offset 8
	pushq	1400(%rsp)
	.cfi_adjust_cfa_offset 8
	pushq	1400(%rsp)
	.cfi_adjust_cfa_offset 8
	pushq	$19
	.cfi_adjust_cfa_offset 8
	pushq	%r12
	.cfi_adjust_cfa_offset 8
	pushq	$19
	.cfi_adjust_cfa_offset 8
	pushq	%r15
	.cfi_adjust_cfa_offset 8
	pushq	$19
	.cfi_adjust_cfa_offset 8
	pushq	%r14
	.cfi_adjust_cfa_offset 8
