	.text
	.file	"llvm-link"
	.globl	main                    # -- Begin function main
	.p2align	4, 0x90
	.type	main,@function
main:                                   # @main
	.cfi_startproc
# %bb.0:
	pushq	%rbp
	.cfi_def_cfa_offset 16
	.cfi_offset %rbp, -16
	movq	%rsp, %rbp
	.cfi_def_cfa_register %rbp
	subq	$32, %rsp
	movq	%fs:40, %rax
	movq	%rax, -8(%rbp)
	movq	.L__const.main.a(%rip), %rax
	movq	%rax, -24(%rbp)
	movl	.L__const.main.a+8(%rip), %eax
	movl	%eax, -16(%rbp)
	leaq	-24(%rbp), %rdi
	movl	$3, %esi
	callq	mu
	movl	-24(%rbp), %esi
	movl	-20(%rbp), %edx
	movl	-16(%rbp), %ecx
	movl	$.L.str, %edi
	xorl	%eax, %eax
	callq	printf
	movq	%fs:40, %rax
	cmpq	-8(%rbp), %rax
	jne	.LBB0_2
# %bb.1:                                # %SP_return
	xorl	%eax, %eax
	addq	$32, %rsp
	popq	%rbp
	.cfi_def_cfa %rsp, 8
	retq
.LBB0_2:                                # %CallStackCheckFailBlk
	.cfi_def_cfa %rbp, 16
	callq	__stack_chk_fail
.Lfunc_end0:
	.size	main, .Lfunc_end0-main
	.cfi_endproc
                                        # -- End function
	.globl	mu                      # -- Begin function mu
	.p2align	4, 0x90
	.type	mu,@function
mu:                                     # @mu
	.cfi_startproc
# %bb.0:
	pushq	%rbp
	.cfi_def_cfa_offset 16
	pushq	%r15
	.cfi_def_cfa_offset 24
	pushq	%r14
	.cfi_def_cfa_offset 32
	pushq	%rbx
	.cfi_def_cfa_offset 40
	subq	$88, %rsp
	.cfi_def_cfa_offset 128
	.cfi_offset %rbx, -40
	.cfi_offset %r14, -32
	.cfi_offset %r15, -24
	.cfi_offset %rbp, -16
	movb	$1, 79(%rsp)
	movl	$0, -120(%rsp)
	movq	$0, -128(%rsp)
	movl	(%rdi), %eax
	andl	$1, %eax
	movb	%al, 78(%rsp)
	movl	%eax, -120(%rsp)
	movb	$1, 77(%rsp)
	leaq	4(%rdi), %r8
	movl	4(%rdi), %eax
	andl	$1, %eax
	movb	%al, 76(%rsp)
	movl	%eax, -124(%rsp)
	movb	$1, 75(%rsp)
	movl	8(%rdi), %eax
	andl	$1, %eax
	movb	%al, 74(%rsp)
	movl	%eax, -128(%rsp)
	movb	$1, -82(%rsp)
	sarl	(%rdi)
	cmpq	$1, %rsi
	movb	-82(%rsp), %al
	leaq	80(%rsp), %r11
	movq	%r11, %r10
	cmovgq	%r8, %r10
	testb	%al, %al
	movq	%r10, %rdx
	cmovneq	%r8, %rdx
	movl	(%rdx), %ecx
	sarl	%ecx
	testb	%al, %al
	cmovel	4(%rdi), %ecx
	leaq	8(%rdi), %r9
	cmpq	$2, %rsi
	movl	%ecx, (%rdx)
	movb	-82(%rsp), %al
	cmovgq	%r9, %r11
	testb	%al, %al
	movq	%r11, %rcx
	cmovneq	%r9, %rcx
	movl	(%rcx), %edx
	sarl	%edx
	testb	%al, %al
	cmovel	8(%rdi), %edx
	movl	%edx, (%rcx)
	movb	-82(%rsp), %al
	movl	-128(%rsp), %esi
	movl	-124(%rsp), %edx
	addl	%esi, %esi
	addl	%edx, %edx
	movl	-120(%rsp), %ecx
	addl	%ecx, %ecx
	testb	%al, %al
	cmovel	-128(%rsp), %esi
	movl	%esi, -128(%rsp)
	cmovel	-124(%rsp), %edx
	movl	%edx, -124(%rsp)
	cmovel	-120(%rsp), %ecx
	movl	%ecx, -120(%rsp)
	movq	%r10, %r15
	cmovneq	%r8, %r15
	movq	%r11, %r14
	cmovneq	%r9, %r14
	movb	(%rdi), %bl
	andb	%al, %bl
	movb	%bl, 73(%rsp)
	movl	%ecx, %ebp
	orl	$1, %ebp
	testb	%bl, %bl
	cmovel	%ecx, %ebp
	movl	%ebp, -120(%rsp)
	movb	%al, 72(%rsp)
	movb	(%r15), %cl
	andb	%al, %cl
	movb	%cl, 71(%rsp)
	movl	%edx, %ebx
	orl	$1, %ebx
	testb	%cl, %cl
	cmovel	%edx, %ebx
	movl	%ebx, -124(%rsp)
	movb	%al, 70(%rsp)
	movb	(%r14), %cl
	andb	%al, %cl
	movb	%cl, 69(%rsp)
	movl	%esi, %edx
	orl	$1, %edx
	testb	%cl, %cl
	cmovel	%esi, %edx
	movl	%edx, -128(%rsp)
	movb	%al, -83(%rsp)
	movl	(%rdi), %ecx
	movl	%ecx, %edx
	sarl	%edx
	testb	%al, %al
	cmovel	%ecx, %edx
	movl	%edx, (%rdi)
	movb	-83(%rsp), %al
	testb	%al, %al
	movq	%r10, %rcx
	cmovneq	%r8, %rcx
	movl	(%rcx), %edx
	sarl	%edx
	testb	%al, %al
	cmovel	4(%rdi), %edx
	movl	%edx, (%rcx)
	movb	-83(%rsp), %al
	testb	%al, %al
	movq	%r11, %rcx
	cmovneq	%r9, %rcx
	movl	(%rcx), %edx
	sarl	%edx
	testb	%al, %al
	cmovel	8(%rdi), %edx
	movl	%edx, (%rcx)
	movb	-83(%rsp), %al
	movl	-128(%rsp), %esi
	movl	-124(%rsp), %edx
	addl	%esi, %esi
	addl	%edx, %edx
	movl	-120(%rsp), %ebp
	addl	%ebp, %ebp
	testb	%al, %al
	cmovel	-128(%rsp), %esi
	movl	%esi, -128(%rsp)
	cmovel	-124(%rsp), %edx
	movl	%edx, -124(%rsp)
	cmovel	-120(%rsp), %ebp
	movl	%ebp, -120(%rsp)
	movq	%r10, %r15
	cmovneq	%r8, %r15
	movq	%r11, %r14
	cmovneq	%r9, %r14
	movb	(%rdi), %bl
	andb	%al, %bl
	movb	%bl, 68(%rsp)
	movl	%ebp, %ecx
	orl	$1, %ecx
	testb	%bl, %bl
	cmovel	%ebp, %ecx
	movl	%ecx, -120(%rsp)
	movb	%al, 67(%rsp)
	movb	(%r15), %cl
	andb	%al, %cl
	movb	%cl, 66(%rsp)
	movl	%edx, %ebx
	orl	$1, %ebx
	testb	%cl, %cl
	cmovel	%edx, %ebx
	movl	%ebx, -124(%rsp)
	movb	%al, 65(%rsp)
	movb	(%r14), %cl
	andb	%al, %cl
	movb	%cl, 64(%rsp)
	movl	%esi, %edx
	orl	$1, %edx
	testb	%cl, %cl
	cmovel	%esi, %edx
	movl	%edx, -128(%rsp)
	movb	%al, -84(%rsp)
	movl	(%rdi), %ecx
	movl	%ecx, %edx
	sarl	%edx
	testb	%al, %al
	cmovel	%ecx, %edx
	movl	%edx, (%rdi)
	movb	-84(%rsp), %al
	testb	%al, %al
	movq	%r10, %rcx
	cmovneq	%r8, %rcx
	movl	(%rcx), %edx
	sarl	%edx
	testb	%al, %al
	cmovel	4(%rdi), %edx
	movl	%edx, (%rcx)
	movb	-84(%rsp), %al
	testb	%al, %al
	movq	%r11, %rcx
	cmovneq	%r9, %rcx
	movl	(%rcx), %edx
	sarl	%edx
	testb	%al, %al
	cmovel	8(%rdi), %edx
	movl	%edx, (%rcx)
	movb	-84(%rsp), %al
	movl	-128(%rsp), %esi
	movl	-124(%rsp), %edx
	addl	%esi, %esi
	addl	%edx, %edx
	movl	-120(%rsp), %ebp
	addl	%ebp, %ebp
	testb	%al, %al
	cmovel	-128(%rsp), %esi
	movl	%esi, -128(%rsp)
	cmovel	-124(%rsp), %edx
	movl	%edx, -124(%rsp)
	cmovel	-120(%rsp), %ebp
	movl	%ebp, -120(%rsp)
	movq	%r10, %r15
	cmovneq	%r8, %r15
	movq	%r11, %r14
	cmovneq	%r9, %r14
	movb	(%rdi), %bl
	andb	%al, %bl
	movb	%bl, 63(%rsp)
	movl	%ebp, %ecx
	orl	$1, %ecx
	testb	%bl, %bl
	cmovel	%ebp, %ecx
	movl	%ecx, -120(%rsp)
	movb	%al, 62(%rsp)
	movb	(%r15), %cl
	andb	%al, %cl
	movb	%cl, 61(%rsp)
	movl	%edx, %ebx
	orl	$1, %ebx
	testb	%cl, %cl
	cmovel	%edx, %ebx
	movl	%ebx, -124(%rsp)
	movb	%al, 60(%rsp)
	movb	(%r14), %cl
	andb	%al, %cl
	movb	%cl, 59(%rsp)
	movl	%esi, %edx
	orl	$1, %edx
	testb	%cl, %cl
	cmovel	%esi, %edx
	movl	%edx, -128(%rsp)
	movb	%al, -85(%rsp)
	movl	(%rdi), %ecx
	movl	%ecx, %edx
	sarl	%edx
	testb	%al, %al
	cmovel	%ecx, %edx
	movl	%edx, (%rdi)
	movb	-85(%rsp), %al
	testb	%al, %al
	movq	%r10, %rcx
	cmovneq	%r8, %rcx
	movl	(%rcx), %edx
	sarl	%edx
	testb	%al, %al
	cmovel	4(%rdi), %edx
	movl	%edx, (%rcx)
	movb	-85(%rsp), %al
	testb	%al, %al
	movq	%r11, %rcx
	cmovneq	%r9, %rcx
	movl	(%rcx), %edx
	sarl	%edx
	testb	%al, %al
	cmovel	8(%rdi), %edx
	movl	%edx, (%rcx)
	movb	-85(%rsp), %al
	movl	-128(%rsp), %esi
	movl	-124(%rsp), %edx
	addl	%esi, %esi
	addl	%edx, %edx
	movl	-120(%rsp), %ebp
	addl	%ebp, %ebp
	testb	%al, %al
	cmovel	-128(%rsp), %esi
	movl	%esi, -128(%rsp)
	cmovel	-124(%rsp), %edx
	movl	%edx, -124(%rsp)
	cmovel	-120(%rsp), %ebp
	movl	%ebp, -120(%rsp)
	movq	%r10, %r15
	cmovneq	%r8, %r15
	movq	%r11, %r14
	cmovneq	%r9, %r14
	movb	(%rdi), %bl
	andb	%al, %bl
	movb	%bl, 58(%rsp)
	movl	%ebp, %ecx
	orl	$1, %ecx
	testb	%bl, %bl
	cmovel	%ebp, %ecx
	movl	%ecx, -120(%rsp)
	movb	%al, 57(%rsp)
	movb	(%r15), %cl
	andb	%al, %cl
	movb	%cl, 56(%rsp)
	movl	%edx, %ebx
	orl	$1, %ebx
	testb	%cl, %cl
	cmovel	%edx, %ebx
	movl	%ebx, -124(%rsp)
	movb	%al, 55(%rsp)
	movb	(%r14), %cl
	andb	%al, %cl
	movb	%cl, 54(%rsp)
	movl	%esi, %edx
	orl	$1, %edx
	testb	%cl, %cl
	cmovel	%esi, %edx
	movl	%edx, -128(%rsp)
	movb	%al, -86(%rsp)
	movl	(%rdi), %ecx
	movl	%ecx, %edx
	sarl	%edx
	testb	%al, %al
	cmovel	%ecx, %edx
	movl	%edx, (%rdi)
	movb	-86(%rsp), %al
	testb	%al, %al
	movq	%r10, %rcx
	cmovneq	%r8, %rcx
	movl	(%rcx), %edx
	sarl	%edx
	testb	%al, %al
	cmovel	4(%rdi), %edx
	movl	%edx, (%rcx)
	movb	-86(%rsp), %al
	testb	%al, %al
	movq	%r11, %rcx
	cmovneq	%r9, %rcx
	movl	(%rcx), %edx
	sarl	%edx
	testb	%al, %al
	cmovel	8(%rdi), %edx
	movl	%edx, (%rcx)
	movb	-86(%rsp), %al
	movl	-128(%rsp), %esi
	movl	-124(%rsp), %edx
	addl	%esi, %esi
	addl	%edx, %edx
	movl	-120(%rsp), %ebp
	addl	%ebp, %ebp
	testb	%al, %al
	cmovel	-128(%rsp), %esi
	movl	%esi, -128(%rsp)
	cmovel	-124(%rsp), %edx
	movl	%edx, -124(%rsp)
	cmovel	-120(%rsp), %ebp
	movl	%ebp, -120(%rsp)
	movq	%r10, %r15
	cmovneq	%r8, %r15
	movq	%r11, %r14
	cmovneq	%r9, %r14
	movb	(%rdi), %bl
	andb	%al, %bl
	movb	%bl, 53(%rsp)
	movl	%ebp, %ecx
	orl	$1, %ecx
	testb	%bl, %bl
	cmovel	%ebp, %ecx
	movl	%ecx, -120(%rsp)
	movb	%al, 52(%rsp)
	movb	(%r15), %cl
	andb	%al, %cl
	movb	%cl, 51(%rsp)
	movl	%edx, %ebx
	orl	$1, %ebx
	testb	%cl, %cl
	cmovel	%edx, %ebx
	movl	%ebx, -124(%rsp)
	movb	%al, 50(%rsp)
	movb	(%r14), %cl
	andb	%al, %cl
	movb	%cl, 49(%rsp)
	movl	%esi, %edx
	orl	$1, %edx
	testb	%cl, %cl
	cmovel	%esi, %edx
	movl	%edx, -128(%rsp)
	movb	%al, -87(%rsp)
	movl	(%rdi), %ecx
	movl	%ecx, %edx
	sarl	%edx
	testb	%al, %al
	cmovel	%ecx, %edx
	movl	%edx, (%rdi)
	movb	-87(%rsp), %al
	testb	%al, %al
	movq	%r10, %rcx
	cmovneq	%r8, %rcx
	movl	(%rcx), %edx
	sarl	%edx
	testb	%al, %al
	cmovel	4(%rdi), %edx
	movl	%edx, (%rcx)
	movb	-87(%rsp), %al
	testb	%al, %al
	movq	%r11, %rcx
	cmovneq	%r9, %rcx
	movl	(%rcx), %edx
	sarl	%edx
	testb	%al, %al
	cmovel	8(%rdi), %edx
	movl	%edx, (%rcx)
	movb	-87(%rsp), %al
	movl	-128(%rsp), %esi
	movl	-124(%rsp), %edx
	addl	%esi, %esi
	addl	%edx, %edx
	movl	-120(%rsp), %ebp
	addl	%ebp, %ebp
	testb	%al, %al
	cmovel	-128(%rsp), %esi
	movl	%esi, -128(%rsp)
	cmovel	-124(%rsp), %edx
	movl	%edx, -124(%rsp)
	cmovel	-120(%rsp), %ebp
	movl	%ebp, -120(%rsp)
	movq	%r10, %r15
	cmovneq	%r8, %r15
	movq	%r11, %r14
	cmovneq	%r9, %r14
	movb	(%rdi), %bl
	andb	%al, %bl
	movb	%bl, 48(%rsp)
	movl	%ebp, %ecx
	orl	$1, %ecx
	testb	%bl, %bl
	cmovel	%ebp, %ecx
	movl	%ecx, -120(%rsp)
	movb	%al, 47(%rsp)
	movb	(%r15), %cl
	andb	%al, %cl
	movb	%cl, 46(%rsp)
	movl	%edx, %ebx
	orl	$1, %ebx
	testb	%cl, %cl
	cmovel	%edx, %ebx
	movl	%ebx, -124(%rsp)
	movb	%al, 45(%rsp)
	movb	(%r14), %cl
	andb	%al, %cl
	movb	%cl, 44(%rsp)
	movl	%esi, %edx
	orl	$1, %edx
	testb	%cl, %cl
	cmovel	%esi, %edx
	movl	%edx, -128(%rsp)
	movb	%al, -88(%rsp)
	movl	(%rdi), %ecx
	movl	%ecx, %edx
	sarl	%edx
	testb	%al, %al
	cmovel	%ecx, %edx
	movl	%edx, (%rdi)
	movb	-88(%rsp), %al
	testb	%al, %al
	movq	%r10, %rcx
	cmovneq	%r8, %rcx
	movl	(%rcx), %edx
	sarl	%edx
	testb	%al, %al
	cmovel	4(%rdi), %edx
	movl	%edx, (%rcx)
	movb	-88(%rsp), %al
	testb	%al, %al
	movq	%r11, %rcx
	cmovneq	%r9, %rcx
	movl	(%rcx), %edx
	sarl	%edx
	testb	%al, %al
	cmovel	8(%rdi), %edx
	movl	%edx, (%rcx)
	movb	-88(%rsp), %al
	movl	-128(%rsp), %esi
	movl	-124(%rsp), %edx
	addl	%esi, %esi
	addl	%edx, %edx
	movl	-120(%rsp), %ebp
	addl	%ebp, %ebp
	testb	%al, %al
	cmovel	-128(%rsp), %esi
	movl	%esi, -128(%rsp)
	cmovel	-124(%rsp), %edx
	movl	%edx, -124(%rsp)
	cmovel	-120(%rsp), %ebp
	movl	%ebp, -120(%rsp)
	movq	%r10, %r15
	cmovneq	%r8, %r15
	movq	%r11, %r14
	cmovneq	%r9, %r14
	movb	(%rdi), %bl
	andb	%al, %bl
	movb	%bl, 43(%rsp)
	movl	%ebp, %ecx
	orl	$1, %ecx
	testb	%bl, %bl
	cmovel	%ebp, %ecx
	movl	%ecx, -120(%rsp)
	movb	%al, 42(%rsp)
	movb	(%r15), %cl
	andb	%al, %cl
	movb	%cl, 41(%rsp)
	movl	%edx, %ebx
	orl	$1, %ebx
	testb	%cl, %cl
	cmovel	%edx, %ebx
	movl	%ebx, -124(%rsp)
	movb	%al, 40(%rsp)
	movb	(%r14), %cl
	andb	%al, %cl
	movb	%cl, 39(%rsp)
	movl	%esi, %edx
	orl	$1, %edx
	testb	%cl, %cl
	cmovel	%esi, %edx
	movl	%edx, -128(%rsp)
	movb	%al, -89(%rsp)
	movl	(%rdi), %ecx
	movl	%ecx, %edx
	sarl	%edx
	testb	%al, %al
	cmovel	%ecx, %edx
	movl	%edx, (%rdi)
	movb	-89(%rsp), %al
	testb	%al, %al
	movq	%r10, %rcx
	cmovneq	%r8, %rcx
	movl	(%rcx), %edx
	sarl	%edx
	testb	%al, %al
	cmovel	4(%rdi), %edx
	movl	%edx, (%rcx)
	movb	-89(%rsp), %al
	testb	%al, %al
	movq	%r11, %rcx
	cmovneq	%r9, %rcx
	movl	(%rcx), %edx
	sarl	%edx
	testb	%al, %al
	cmovel	8(%rdi), %edx
	movl	%edx, (%rcx)
	movb	-89(%rsp), %al
	movl	-128(%rsp), %esi
	movl	-124(%rsp), %edx
	addl	%esi, %esi
	addl	%edx, %edx
	movl	-120(%rsp), %ebp
	addl	%ebp, %ebp
	testb	%al, %al
	cmovel	-128(%rsp), %esi
	movl	%esi, -128(%rsp)
	cmovel	-124(%rsp), %edx
	movl	%edx, -124(%rsp)
	cmovel	-120(%rsp), %ebp
	movl	%ebp, -120(%rsp)
	movq	%r10, %r15
	cmovneq	%r8, %r15
	movq	%r11, %r14
	cmovneq	%r9, %r14
	movb	(%rdi), %bl
	andb	%al, %bl
	movb	%bl, 38(%rsp)
	movl	%ebp, %ecx
	orl	$1, %ecx
	testb	%bl, %bl
	cmovel	%ebp, %ecx
	movl	%ecx, -120(%rsp)
	movb	%al, 37(%rsp)
	movb	(%r15), %cl
	andb	%al, %cl
	movb	%cl, 36(%rsp)
	movl	%edx, %ebx
	orl	$1, %ebx
	testb	%cl, %cl
	cmovel	%edx, %ebx
	movl	%ebx, -124(%rsp)
	movb	%al, 35(%rsp)
	movb	(%r14), %cl
	andb	%al, %cl
	movb	%cl, 34(%rsp)
	movl	%esi, %edx
	orl	$1, %edx
	testb	%cl, %cl
	cmovel	%esi, %edx
	movl	%edx, -128(%rsp)
	movb	%al, -90(%rsp)
	movl	(%rdi), %ecx
	movl	%ecx, %edx
	sarl	%edx
	testb	%al, %al
	cmovel	%ecx, %edx
	movl	%edx, (%rdi)
	movb	-90(%rsp), %al
	testb	%al, %al
	movq	%r10, %rcx
	cmovneq	%r8, %rcx
	movl	(%rcx), %edx
	sarl	%edx
	testb	%al, %al
	cmovel	4(%rdi), %edx
	movl	%edx, (%rcx)
	movb	-90(%rsp), %al
	testb	%al, %al
	movq	%r11, %rcx
	cmovneq	%r9, %rcx
	movl	(%rcx), %edx
	sarl	%edx
	testb	%al, %al
	cmovel	8(%rdi), %edx
	movl	%edx, (%rcx)
	movb	-90(%rsp), %al
	movl	-128(%rsp), %esi
	movl	-124(%rsp), %edx
	addl	%esi, %esi
	addl	%edx, %edx
	movl	-120(%rsp), %ebp
	addl	%ebp, %ebp
	testb	%al, %al
	cmovel	-128(%rsp), %esi
	movl	%esi, -128(%rsp)
	cmovel	-124(%rsp), %edx
	movl	%edx, -124(%rsp)
	cmovel	-120(%rsp), %ebp
	movl	%ebp, -120(%rsp)
	movq	%r10, %r15
	cmovneq	%r8, %r15
	movq	%r11, %r14
	cmovneq	%r9, %r14
	movb	(%rdi), %bl
	andb	%al, %bl
	movb	%bl, 33(%rsp)
	movl	%ebp, %ecx
	orl	$1, %ecx
	testb	%bl, %bl
	cmovel	%ebp, %ecx
	movl	%ecx, -120(%rsp)
	movb	%al, 32(%rsp)
	movb	(%r15), %cl
	andb	%al, %cl
	movb	%cl, 31(%rsp)
	movl	%edx, %ebx
	orl	$1, %ebx
	testb	%cl, %cl
	cmovel	%edx, %ebx
	movl	%ebx, -124(%rsp)
	movb	%al, 30(%rsp)
	movb	(%r14), %cl
	andb	%al, %cl
	movb	%cl, 29(%rsp)
	movl	%esi, %edx
	orl	$1, %edx
	testb	%cl, %cl
	cmovel	%esi, %edx
	movl	%edx, -128(%rsp)
	movb	%al, -91(%rsp)
	movl	(%rdi), %ecx
	movl	%ecx, %edx
	sarl	%edx
	testb	%al, %al
	cmovel	%ecx, %edx
	movl	%edx, (%rdi)
	movb	-91(%rsp), %al
	testb	%al, %al
	movq	%r10, %rcx
	cmovneq	%r8, %rcx
	movl	(%rcx), %edx
	sarl	%edx
	testb	%al, %al
	cmovel	4(%rdi), %edx
	movl	%edx, (%rcx)
	movb	-91(%rsp), %al
	testb	%al, %al
	movq	%r11, %rcx
	cmovneq	%r9, %rcx
	movl	(%rcx), %edx
	sarl	%edx
	testb	%al, %al
	cmovel	8(%rdi), %edx
	movl	%edx, (%rcx)
	movb	-91(%rsp), %al
	movl	-128(%rsp), %esi
	movl	-124(%rsp), %edx
	addl	%esi, %esi
	addl	%edx, %edx
	movl	-120(%rsp), %ebp
	addl	%ebp, %ebp
	testb	%al, %al
	cmovel	-128(%rsp), %esi
	movl	%esi, -128(%rsp)
	cmovel	-124(%rsp), %edx
	movl	%edx, -124(%rsp)
	cmovel	-120(%rsp), %ebp
	movl	%ebp, -120(%rsp)
	movq	%r10, %r15
	cmovneq	%r8, %r15
	movq	%r11, %r14
	cmovneq	%r9, %r14
	movb	(%rdi), %bl
	andb	%al, %bl
	movb	%bl, 28(%rsp)
	movl	%ebp, %ecx
	orl	$1, %ecx
	testb	%bl, %bl
	cmovel	%ebp, %ecx
	movl	%ecx, -120(%rsp)
	movb	%al, 27(%rsp)
	movb	(%r15), %cl
	andb	%al, %cl
	movb	%cl, 26(%rsp)
	movl	%edx, %ebx
	orl	$1, %ebx
	testb	%cl, %cl
	cmovel	%edx, %ebx
	movl	%ebx, -124(%rsp)
	movb	%al, 25(%rsp)
	movb	(%r14), %cl
	andb	%al, %cl
	movb	%cl, 24(%rsp)
	movl	%esi, %edx
	orl	$1, %edx
	testb	%cl, %cl
	cmovel	%esi, %edx
	movl	%edx, -128(%rsp)
	movb	%al, -92(%rsp)
	movl	(%rdi), %ecx
	movl	%ecx, %edx
	sarl	%edx
	testb	%al, %al
	cmovel	%ecx, %edx
	movl	%edx, (%rdi)
	movb	-92(%rsp), %al
	testb	%al, %al
	movq	%r10, %rcx
	cmovneq	%r8, %rcx
	movl	(%rcx), %edx
	sarl	%edx
	testb	%al, %al
	cmovel	4(%rdi), %edx
	movl	%edx, (%rcx)
	movb	-92(%rsp), %al
	testb	%al, %al
	movq	%r11, %rcx
	cmovneq	%r9, %rcx
	movl	(%rcx), %edx
	sarl	%edx
	testb	%al, %al
	cmovel	8(%rdi), %edx
	movl	%edx, (%rcx)
	movb	-92(%rsp), %al
	movl	-128(%rsp), %esi
	movl	-124(%rsp), %edx
	addl	%esi, %esi
	addl	%edx, %edx
	movl	-120(%rsp), %ebp
	addl	%ebp, %ebp
	testb	%al, %al
	cmovel	-128(%rsp), %esi
	movl	%esi, -128(%rsp)
	cmovel	-124(%rsp), %edx
	movl	%edx, -124(%rsp)
	cmovel	-120(%rsp), %ebp
	movl	%ebp, -120(%rsp)
	movq	%r10, %r15
	cmovneq	%r8, %r15
	movq	%r11, %r14
	cmovneq	%r9, %r14
	movb	(%rdi), %bl
	andb	%al, %bl
	movb	%bl, 23(%rsp)
	movl	%ebp, %ecx
	orl	$1, %ecx
	testb	%bl, %bl
	cmovel	%ebp, %ecx
	movl	%ecx, -120(%rsp)
	movb	%al, 22(%rsp)
	movb	(%r15), %cl
	andb	%al, %cl
	movb	%cl, 21(%rsp)
	movl	%edx, %ebx
	orl	$1, %ebx
	testb	%cl, %cl
	cmovel	%edx, %ebx
	movl	%ebx, -124(%rsp)
	movb	%al, 20(%rsp)
	movb	(%r14), %cl
	andb	%al, %cl
	movb	%cl, 19(%rsp)
	movl	%esi, %edx
	orl	$1, %edx
	testb	%cl, %cl
	cmovel	%esi, %edx
	movl	%edx, -128(%rsp)
	movb	%al, -93(%rsp)
	movl	(%rdi), %ecx
	movl	%ecx, %edx
	sarl	%edx
	testb	%al, %al
	cmovel	%ecx, %edx
	movl	%edx, (%rdi)
	movb	-93(%rsp), %al
	testb	%al, %al
	movq	%r10, %rcx
	cmovneq	%r8, %rcx
	movl	(%rcx), %edx
	sarl	%edx
	testb	%al, %al
	cmovel	4(%rdi), %edx
	movl	%edx, (%rcx)
	movb	-93(%rsp), %al
	testb	%al, %al
	movq	%r11, %rcx
	cmovneq	%r9, %rcx
	movl	(%rcx), %edx
	sarl	%edx
	testb	%al, %al
	cmovel	8(%rdi), %edx
	movl	%edx, (%rcx)
	movb	-93(%rsp), %al
	movl	-128(%rsp), %esi
	movl	-124(%rsp), %edx
	addl	%esi, %esi
	addl	%edx, %edx
	movl	-120(%rsp), %ebp
	addl	%ebp, %ebp
	testb	%al, %al
	cmovel	-128(%rsp), %esi
	movl	%esi, -128(%rsp)
	cmovel	-124(%rsp), %edx
	movl	%edx, -124(%rsp)
	cmovel	-120(%rsp), %ebp
	movl	%ebp, -120(%rsp)
	movq	%r10, %r15
	cmovneq	%r8, %r15
	movq	%r11, %r14
	cmovneq	%r9, %r14
	movb	(%rdi), %bl
	andb	%al, %bl
	movb	%bl, 18(%rsp)
	movl	%ebp, %ecx
	orl	$1, %ecx
	testb	%bl, %bl
	cmovel	%ebp, %ecx
	movl	%ecx, -120(%rsp)
	movb	%al, 17(%rsp)
	movb	(%r15), %cl
	andb	%al, %cl
	movb	%cl, 16(%rsp)
	movl	%edx, %ebx
	orl	$1, %ebx
	testb	%cl, %cl
	cmovel	%edx, %ebx
	movl	%ebx, -124(%rsp)
	movb	%al, 15(%rsp)
	movb	(%r14), %cl
	andb	%al, %cl
	movb	%cl, 14(%rsp)
	movl	%esi, %edx
	orl	$1, %edx
	testb	%cl, %cl
	cmovel	%esi, %edx
	movl	%edx, -128(%rsp)
	movb	%al, -94(%rsp)
	movl	(%rdi), %ecx
	movl	%ecx, %edx
	sarl	%edx
	testb	%al, %al
	cmovel	%ecx, %edx
	movl	%edx, (%rdi)
	movb	-94(%rsp), %al
	testb	%al, %al
	movq	%r10, %rcx
	cmovneq	%r8, %rcx
	movl	(%rcx), %edx
	sarl	%edx
	testb	%al, %al
	cmovel	4(%rdi), %edx
	movl	%edx, (%rcx)
	movb	-94(%rsp), %al
	testb	%al, %al
	movq	%r11, %rcx
	cmovneq	%r9, %rcx
	movl	(%rcx), %edx
	sarl	%edx
	testb	%al, %al
	cmovel	8(%rdi), %edx
	movl	%edx, (%rcx)
	movb	-94(%rsp), %al
	movl	-128(%rsp), %esi
	movl	-124(%rsp), %edx
	addl	%esi, %esi
	addl	%edx, %edx
	movl	-120(%rsp), %ebp
	addl	%ebp, %ebp
	testb	%al, %al
	cmovel	-128(%rsp), %esi
	movl	%esi, -128(%rsp)
	cmovel	-124(%rsp), %edx
	movl	%edx, -124(%rsp)
	cmovel	-120(%rsp), %ebp
	movl	%ebp, -120(%rsp)
	movq	%r10, %r15
	cmovneq	%r8, %r15
	movq	%r11, %r14
	cmovneq	%r9, %r14
	movb	(%rdi), %bl
	andb	%al, %bl
	movb	%bl, 13(%rsp)
	movl	%ebp, %ecx
	orl	$1, %ecx
	testb	%bl, %bl
	cmovel	%ebp, %ecx
	movl	%ecx, -120(%rsp)
	movb	%al, 12(%rsp)
	movb	(%r15), %cl
	andb	%al, %cl
	movb	%cl, 11(%rsp)
	movl	%edx, %ebx
	orl	$1, %ebx
	testb	%cl, %cl
	cmovel	%edx, %ebx
	movl	%ebx, -124(%rsp)
	movb	%al, 10(%rsp)
	movb	(%r14), %cl
	andb	%al, %cl
	movb	%cl, 9(%rsp)
	movl	%esi, %edx
	orl	$1, %edx
	testb	%cl, %cl
	cmovel	%esi, %edx
	movl	%edx, -128(%rsp)
	movb	%al, -95(%rsp)
	movl	(%rdi), %ecx
	movl	%ecx, %edx
	sarl	%edx
	testb	%al, %al
	cmovel	%ecx, %edx
	movl	%edx, (%rdi)
	movb	-95(%rsp), %al
	testb	%al, %al
	movq	%r10, %rcx
	cmovneq	%r8, %rcx
	movl	(%rcx), %edx
	sarl	%edx
	testb	%al, %al
	cmovel	4(%rdi), %edx
	movl	%edx, (%rcx)
	movb	-95(%rsp), %al
	testb	%al, %al
	movq	%r11, %rcx
	cmovneq	%r9, %rcx
	movl	(%rcx), %edx
	sarl	%edx
	testb	%al, %al
	cmovel	8(%rdi), %edx
	movl	%edx, (%rcx)
	movb	-95(%rsp), %al
	movl	-128(%rsp), %esi
	movl	-124(%rsp), %edx
	addl	%esi, %esi
	addl	%edx, %edx
	movl	-120(%rsp), %ebp
	addl	%ebp, %ebp
	testb	%al, %al
	cmovel	-128(%rsp), %esi
	movl	%esi, -128(%rsp)
	cmovel	-124(%rsp), %edx
	movl	%edx, -124(%rsp)
	cmovel	-120(%rsp), %ebp
	movl	%ebp, -120(%rsp)
	movq	%r10, %r15
	cmovneq	%r8, %r15
	movq	%r11, %r14
	cmovneq	%r9, %r14
	movb	(%rdi), %bl
	andb	%al, %bl
	movb	%bl, 8(%rsp)
	movl	%ebp, %ecx
	orl	$1, %ecx
	testb	%bl, %bl
	cmovel	%ebp, %ecx
	movl	%ecx, -120(%rsp)
	movb	%al, 7(%rsp)
	movb	(%r15), %cl
	andb	%al, %cl
	movb	%cl, 6(%rsp)
	movl	%edx, %ebx
	orl	$1, %ebx
	testb	%cl, %cl
	cmovel	%edx, %ebx
	movl	%ebx, -124(%rsp)
	movb	%al, 5(%rsp)
	movb	(%r14), %cl
	andb	%al, %cl
	movb	%cl, 4(%rsp)
	movl	%esi, %edx
	orl	$1, %edx
	testb	%cl, %cl
	cmovel	%esi, %edx
	movl	%edx, -128(%rsp)
	movb	%al, -96(%rsp)
	movl	(%rdi), %ecx
	movl	%ecx, %edx
	sarl	%edx
	testb	%al, %al
	cmovel	%ecx, %edx
	movl	%edx, (%rdi)
	movb	-96(%rsp), %al
	testb	%al, %al
	movq	%r10, %rcx
	cmovneq	%r8, %rcx
	movl	(%rcx), %edx
	sarl	%edx
	testb	%al, %al
	cmovel	4(%rdi), %edx
	movl	%edx, (%rcx)
	movb	-96(%rsp), %al
	testb	%al, %al
	movq	%r11, %rcx
	cmovneq	%r9, %rcx
	movl	(%rcx), %edx
	sarl	%edx
	testb	%al, %al
	cmovel	8(%rdi), %edx
	movl	%edx, (%rcx)
	movb	-96(%rsp), %al
	movl	-128(%rsp), %esi
	movl	-124(%rsp), %edx
	addl	%esi, %esi
	addl	%edx, %edx
	movl	-120(%rsp), %ebp
	addl	%ebp, %ebp
	testb	%al, %al
	cmovel	-128(%rsp), %esi
	movl	%esi, -128(%rsp)
	cmovel	-124(%rsp), %edx
	movl	%edx, -124(%rsp)
	cmovel	-120(%rsp), %ebp
	movl	%ebp, -120(%rsp)
	movq	%r10, %r15
	cmovneq	%r8, %r15
	movq	%r11, %r14
	cmovneq	%r9, %r14
	movb	(%rdi), %bl
	andb	%al, %bl
	movb	%bl, 3(%rsp)
	movl	%ebp, %ecx
	orl	$1, %ecx
	testb	%bl, %bl
	cmovel	%ebp, %ecx
	movl	%ecx, -120(%rsp)
	movb	%al, 2(%rsp)
	movb	(%r15), %cl
	andb	%al, %cl
	movb	%cl, 1(%rsp)
	movl	%edx, %ebx
	orl	$1, %ebx
	testb	%cl, %cl
	cmovel	%edx, %ebx
	movl	%ebx, -124(%rsp)
	movb	%al, (%rsp)
	movb	(%r14), %cl
	andb	%al, %cl
	movb	%cl, -1(%rsp)
	movl	%esi, %edx
	orl	$1, %edx
	testb	%cl, %cl
	cmovel	%esi, %edx
	movl	%edx, -128(%rsp)
	movb	%al, -97(%rsp)
	movl	(%rdi), %ecx
	movl	%ecx, %edx
	sarl	%edx
	testb	%al, %al
	cmovel	%ecx, %edx
	movl	%edx, (%rdi)
	movb	-97(%rsp), %al
	testb	%al, %al
	movq	%r10, %rcx
	cmovneq	%r8, %rcx
	movl	(%rcx), %edx
	sarl	%edx
	testb	%al, %al
	cmovel	4(%rdi), %edx
	movl	%edx, (%rcx)
	movb	-97(%rsp), %al
	testb	%al, %al
	movq	%r11, %rcx
	cmovneq	%r9, %rcx
	movl	(%rcx), %edx
	sarl	%edx
	testb	%al, %al
	cmovel	8(%rdi), %edx
	movl	%edx, (%rcx)
	movb	-97(%rsp), %al
	movl	-128(%rsp), %esi
	movl	-124(%rsp), %edx
	addl	%esi, %esi
	addl	%edx, %edx
	movl	-120(%rsp), %ebp
	addl	%ebp, %ebp
	testb	%al, %al
	cmovel	-128(%rsp), %esi
	movl	%esi, -128(%rsp)
	cmovel	-124(%rsp), %edx
	movl	%edx, -124(%rsp)
	cmovel	-120(%rsp), %ebp
	movl	%ebp, -120(%rsp)
	movq	%r10, %r15
	cmovneq	%r8, %r15
	movq	%r11, %r14
	cmovneq	%r9, %r14
	movb	(%rdi), %bl
	andb	%al, %bl
	movb	%bl, -2(%rsp)
	movl	%ebp, %ecx
	orl	$1, %ecx
	testb	%bl, %bl
	cmovel	%ebp, %ecx
	movl	%ecx, -120(%rsp)
	movb	%al, -3(%rsp)
	movb	(%r15), %cl
	andb	%al, %cl
	movb	%cl, -4(%rsp)
	movl	%edx, %ebx
	orl	$1, %ebx
	testb	%cl, %cl
	cmovel	%edx, %ebx
	movl	%ebx, -124(%rsp)
	movb	%al, -5(%rsp)
	movb	(%r14), %cl
	andb	%al, %cl
	movb	%cl, -6(%rsp)
	movl	%esi, %edx
	orl	$1, %edx
	testb	%cl, %cl
	cmovel	%esi, %edx
	movl	%edx, -128(%rsp)
	movb	%al, -98(%rsp)
	movl	(%rdi), %ecx
	movl	%ecx, %edx
	sarl	%edx
	testb	%al, %al
	cmovel	%ecx, %edx
	movl	%edx, (%rdi)
	movb	-98(%rsp), %al
	testb	%al, %al
	movq	%r10, %rcx
	cmovneq	%r8, %rcx
	movl	(%rcx), %edx
	sarl	%edx
	testb	%al, %al
	cmovel	4(%rdi), %edx
	movl	%edx, (%rcx)
	movb	-98(%rsp), %al
	testb	%al, %al
	movq	%r11, %rcx
	cmovneq	%r9, %rcx
	movl	(%rcx), %edx
	sarl	%edx
	testb	%al, %al
	cmovel	8(%rdi), %edx
	movl	%edx, (%rcx)
	movb	-98(%rsp), %al
	movl	-128(%rsp), %esi
	movl	-124(%rsp), %edx
	addl	%esi, %esi
	addl	%edx, %edx
	movl	-120(%rsp), %ebp
	addl	%ebp, %ebp
	testb	%al, %al
	cmovel	-128(%rsp), %esi
	movl	%esi, -128(%rsp)
	cmovel	-124(%rsp), %edx
	movl	%edx, -124(%rsp)
	cmovel	-120(%rsp), %ebp
	movl	%ebp, -120(%rsp)
	movq	%r10, %r15
	cmovneq	%r8, %r15
	movq	%r11, %r14
	cmovneq	%r9, %r14
	movb	(%rdi), %bl
	andb	%al, %bl
	movb	%bl, -7(%rsp)
	movl	%ebp, %ecx
	orl	$1, %ecx
	testb	%bl, %bl
	cmovel	%ebp, %ecx
	movl	%ecx, -120(%rsp)
	movb	%al, -8(%rsp)
	movb	(%r15), %cl
	andb	%al, %cl
	movb	%cl, -9(%rsp)
	movl	%edx, %ebx
	orl	$1, %ebx
	testb	%cl, %cl
	cmovel	%edx, %ebx
	movl	%ebx, -124(%rsp)
	movb	%al, -10(%rsp)
	movb	(%r14), %cl
	andb	%al, %cl
	movb	%cl, -11(%rsp)
	movl	%esi, %edx
	orl	$1, %edx
	testb	%cl, %cl
	cmovel	%esi, %edx
	movl	%edx, -128(%rsp)
	movb	%al, -99(%rsp)
	movl	(%rdi), %ecx
	movl	%ecx, %edx
	sarl	%edx
	testb	%al, %al
	cmovel	%ecx, %edx
	movl	%edx, (%rdi)
	movb	-99(%rsp), %al
	testb	%al, %al
	movq	%r10, %rcx
	cmovneq	%r8, %rcx
	movl	(%rcx), %edx
	sarl	%edx
	testb	%al, %al
	cmovel	4(%rdi), %edx
	movl	%edx, (%rcx)
	movb	-99(%rsp), %al
	testb	%al, %al
	movq	%r11, %rcx
	cmovneq	%r9, %rcx
	movl	(%rcx), %edx
	sarl	%edx
	testb	%al, %al
	cmovel	8(%rdi), %edx
	movl	%edx, (%rcx)
	movb	-99(%rsp), %al
	movl	-128(%rsp), %esi
	movl	-124(%rsp), %edx
	addl	%esi, %esi
	addl	%edx, %edx
	movl	-120(%rsp), %ebp
	addl	%ebp, %ebp
	testb	%al, %al
	cmovel	-128(%rsp), %esi
	movl	%esi, -128(%rsp)
	cmovel	-124(%rsp), %edx
	movl	%edx, -124(%rsp)
	cmovel	-120(%rsp), %ebp
	movl	%ebp, -120(%rsp)
	movq	%r10, %r15
	cmovneq	%r8, %r15
	movq	%r11, %r14
	cmovneq	%r9, %r14
	movb	(%rdi), %bl
	andb	%al, %bl
	movb	%bl, -12(%rsp)
	movl	%ebp, %ecx
	orl	$1, %ecx
	testb	%bl, %bl
	cmovel	%ebp, %ecx
	movl	%ecx, -120(%rsp)
	movb	%al, -13(%rsp)
	movb	(%r15), %cl
	andb	%al, %cl
	movb	%cl, -14(%rsp)
	movl	%edx, %ebx
	orl	$1, %ebx
	testb	%cl, %cl
	cmovel	%edx, %ebx
	movl	%ebx, -124(%rsp)
	movb	%al, -15(%rsp)
	movb	(%r14), %cl
	andb	%al, %cl
	movb	%cl, -16(%rsp)
	movl	%esi, %edx
	orl	$1, %edx
	testb	%cl, %cl
	cmovel	%esi, %edx
	movl	%edx, -128(%rsp)
	movb	%al, -100(%rsp)
	movl	(%rdi), %ecx
	movl	%ecx, %edx
	sarl	%edx
	testb	%al, %al
	cmovel	%ecx, %edx
	movl	%edx, (%rdi)
	movb	-100(%rsp), %al
	testb	%al, %al
	movq	%r10, %rcx
	cmovneq	%r8, %rcx
	movl	(%rcx), %edx
	sarl	%edx
	testb	%al, %al
	cmovel	4(%rdi), %edx
	movl	%edx, (%rcx)
	movb	-100(%rsp), %al
	testb	%al, %al
	movq	%r11, %rcx
	cmovneq	%r9, %rcx
	movl	(%rcx), %edx
	sarl	%edx
	testb	%al, %al
	cmovel	8(%rdi), %edx
	movl	%edx, (%rcx)
	movb	-100(%rsp), %al
	movl	-128(%rsp), %esi
	movl	-124(%rsp), %edx
	addl	%esi, %esi
	addl	%edx, %edx
	movl	-120(%rsp), %ebp
	addl	%ebp, %ebp
	testb	%al, %al
	cmovel	-128(%rsp), %esi
	movl	%esi, -128(%rsp)
	cmovel	-124(%rsp), %edx
	movl	%edx, -124(%rsp)
	cmovel	-120(%rsp), %ebp
	movl	%ebp, -120(%rsp)
	movq	%r10, %r15
	cmovneq	%r8, %r15
	movq	%r11, %r14
	cmovneq	%r9, %r14
	movb	(%rdi), %bl
	andb	%al, %bl
	movb	%bl, -17(%rsp)
	movl	%ebp, %ecx
	orl	$1, %ecx
	testb	%bl, %bl
	cmovel	%ebp, %ecx
	movl	%ecx, -120(%rsp)
	movb	%al, -18(%rsp)
	movb	(%r15), %cl
	andb	%al, %cl
	movb	%cl, -19(%rsp)
	movl	%edx, %ebx
	orl	$1, %ebx
	testb	%cl, %cl
	cmovel	%edx, %ebx
	movl	%ebx, -124(%rsp)
	movb	%al, -20(%rsp)
	movb	(%r14), %cl
	andb	%al, %cl
	movb	%cl, -21(%rsp)
	movl	%esi, %edx
	orl	$1, %edx
	testb	%cl, %cl
	cmovel	%esi, %edx
	movl	%edx, -128(%rsp)
	movb	%al, -101(%rsp)
	movl	(%rdi), %ecx
	movl	%ecx, %edx
	sarl	%edx
	testb	%al, %al
	cmovel	%ecx, %edx
	movl	%edx, (%rdi)
	movb	-101(%rsp), %al
	testb	%al, %al
	movq	%r10, %rcx
	cmovneq	%r8, %rcx
	movl	(%rcx), %edx
	sarl	%edx
	testb	%al, %al
	cmovel	4(%rdi), %edx
	movl	%edx, (%rcx)
	movb	-101(%rsp), %al
	testb	%al, %al
	movq	%r11, %rcx
	cmovneq	%r9, %rcx
	movl	(%rcx), %edx
	sarl	%edx
	testb	%al, %al
	cmovel	8(%rdi), %edx
	movl	%edx, (%rcx)
	movb	-101(%rsp), %al
	movl	-128(%rsp), %esi
	movl	-124(%rsp), %edx
	addl	%esi, %esi
	addl	%edx, %edx
	movl	-120(%rsp), %ebp
	addl	%ebp, %ebp
	testb	%al, %al
	cmovel	-128(%rsp), %esi
	movl	%esi, -128(%rsp)
	cmovel	-124(%rsp), %edx
	movl	%edx, -124(%rsp)
	cmovel	-120(%rsp), %ebp
	movl	%ebp, -120(%rsp)
	movq	%r10, %r15
	cmovneq	%r8, %r15
	movq	%r11, %r14
	cmovneq	%r9, %r14
	movb	(%rdi), %bl
	andb	%al, %bl
	movb	%bl, -22(%rsp)
	movl	%ebp, %ecx
	orl	$1, %ecx
	testb	%bl, %bl
	cmovel	%ebp, %ecx
	movl	%ecx, -120(%rsp)
	movb	%al, -23(%rsp)
	movb	(%r15), %cl
	andb	%al, %cl
	movb	%cl, -24(%rsp)
	movl	%edx, %ebx
	orl	$1, %ebx
	testb	%cl, %cl
	cmovel	%edx, %ebx
	movl	%ebx, -124(%rsp)
	movb	%al, -25(%rsp)
	movb	(%r14), %cl
	andb	%al, %cl
	movb	%cl, -26(%rsp)
	movl	%esi, %edx
	orl	$1, %edx
	testb	%cl, %cl
	cmovel	%esi, %edx
	movl	%edx, -128(%rsp)
	movb	%al, -102(%rsp)
	movl	(%rdi), %ecx
	movl	%ecx, %edx
	sarl	%edx
	testb	%al, %al
	cmovel	%ecx, %edx
	movl	%edx, (%rdi)
	movb	-102(%rsp), %al
	testb	%al, %al
	movq	%r10, %rcx
	cmovneq	%r8, %rcx
	movl	(%rcx), %edx
	sarl	%edx
	testb	%al, %al
	cmovel	4(%rdi), %edx
	movl	%edx, (%rcx)
	movb	-102(%rsp), %al
	testb	%al, %al
	movq	%r11, %rcx
	cmovneq	%r9, %rcx
	movl	(%rcx), %edx
	sarl	%edx
	testb	%al, %al
	cmovel	8(%rdi), %edx
	movl	%edx, (%rcx)
	movb	-102(%rsp), %al
	movl	-128(%rsp), %esi
	movl	-124(%rsp), %edx
	addl	%esi, %esi
	addl	%edx, %edx
	movl	-120(%rsp), %ebp
	addl	%ebp, %ebp
	testb	%al, %al
	cmovel	-128(%rsp), %esi
	movl	%esi, -128(%rsp)
	cmovel	-124(%rsp), %edx
	movl	%edx, -124(%rsp)
	cmovel	-120(%rsp), %ebp
	movl	%ebp, -120(%rsp)
	movq	%r10, %r15
	cmovneq	%r8, %r15
	movq	%r11, %r14
	cmovneq	%r9, %r14
	movb	(%rdi), %bl
	andb	%al, %bl
	movb	%bl, -27(%rsp)
	movl	%ebp, %ecx
	orl	$1, %ecx
	testb	%bl, %bl
	cmovel	%ebp, %ecx
	movl	%ecx, -120(%rsp)
	movb	%al, -28(%rsp)
	movb	(%r15), %cl
	andb	%al, %cl
	movb	%cl, -29(%rsp)
	movl	%edx, %ebx
	orl	$1, %ebx
	testb	%cl, %cl
	cmovel	%edx, %ebx
	movl	%ebx, -124(%rsp)
	movb	%al, -30(%rsp)
	movb	(%r14), %cl
	andb	%al, %cl
	movb	%cl, -31(%rsp)
	movl	%esi, %edx
	orl	$1, %edx
	testb	%cl, %cl
	cmovel	%esi, %edx
	movl	%edx, -128(%rsp)
	movb	%al, -103(%rsp)
	movl	(%rdi), %ecx
	movl	%ecx, %edx
	sarl	%edx
	testb	%al, %al
	cmovel	%ecx, %edx
	movl	%edx, (%rdi)
	movb	-103(%rsp), %al
	testb	%al, %al
	movq	%r10, %rcx
	cmovneq	%r8, %rcx
	movl	(%rcx), %edx
	sarl	%edx
	testb	%al, %al
	cmovel	4(%rdi), %edx
	movl	%edx, (%rcx)
	movb	-103(%rsp), %al
	testb	%al, %al
	movq	%r11, %rcx
	cmovneq	%r9, %rcx
	movl	(%rcx), %edx
	sarl	%edx
	testb	%al, %al
	cmovel	8(%rdi), %edx
	movl	%edx, (%rcx)
	movb	-103(%rsp), %al
	movl	-128(%rsp), %esi
	movl	-124(%rsp), %edx
	addl	%esi, %esi
	addl	%edx, %edx
	movl	-120(%rsp), %ebp
	addl	%ebp, %ebp
	testb	%al, %al
	cmovel	-128(%rsp), %esi
	movl	%esi, -128(%rsp)
	cmovel	-124(%rsp), %edx
	movl	%edx, -124(%rsp)
	cmovel	-120(%rsp), %ebp
	movl	%ebp, -120(%rsp)
	movq	%r10, %r15
	cmovneq	%r8, %r15
	movq	%r11, %r14
	cmovneq	%r9, %r14
	movb	(%rdi), %bl
	andb	%al, %bl
	movb	%bl, -32(%rsp)
	movl	%ebp, %ecx
	orl	$1, %ecx
	testb	%bl, %bl
	cmovel	%ebp, %ecx
	movl	%ecx, -120(%rsp)
	movb	%al, -33(%rsp)
	movb	(%r15), %cl
	andb	%al, %cl
	movb	%cl, -34(%rsp)
	movl	%edx, %ebx
	orl	$1, %ebx
	testb	%cl, %cl
	cmovel	%edx, %ebx
	movl	%ebx, -124(%rsp)
	movb	%al, -35(%rsp)
	movb	(%r14), %cl
	andb	%al, %cl
	movb	%cl, -36(%rsp)
	movl	%esi, %edx
	orl	$1, %edx
	testb	%cl, %cl
	cmovel	%esi, %edx
	movl	%edx, -128(%rsp)
	movb	%al, -104(%rsp)
	movl	(%rdi), %ecx
	movl	%ecx, %edx
	sarl	%edx
	testb	%al, %al
	cmovel	%ecx, %edx
	movl	%edx, (%rdi)
	movb	-104(%rsp), %al
	testb	%al, %al
	movq	%r10, %rcx
	cmovneq	%r8, %rcx
	movl	(%rcx), %edx
	sarl	%edx
	testb	%al, %al
	cmovel	4(%rdi), %edx
	movl	%edx, (%rcx)
	movb	-104(%rsp), %al
	testb	%al, %al
	movq	%r11, %rcx
	cmovneq	%r9, %rcx
	movl	(%rcx), %edx
	sarl	%edx
	testb	%al, %al
	cmovel	8(%rdi), %edx
	movl	%edx, (%rcx)
	movb	-104(%rsp), %al
	movl	-128(%rsp), %esi
	movl	-124(%rsp), %edx
	addl	%esi, %esi
	addl	%edx, %edx
	movl	-120(%rsp), %ebp
	addl	%ebp, %ebp
	testb	%al, %al
	cmovel	-128(%rsp), %esi
	movl	%esi, -128(%rsp)
	cmovel	-124(%rsp), %edx
	movl	%edx, -124(%rsp)
	cmovel	-120(%rsp), %ebp
	movl	%ebp, -120(%rsp)
	movq	%r10, %r15
	cmovneq	%r8, %r15
	movq	%r11, %r14
	cmovneq	%r9, %r14
	movb	(%rdi), %bl
	andb	%al, %bl
	movb	%bl, -37(%rsp)
	movl	%ebp, %ecx
	orl	$1, %ecx
	testb	%bl, %bl
	cmovel	%ebp, %ecx
	movl	%ecx, -120(%rsp)
	movb	%al, -38(%rsp)
	movb	(%r15), %cl
	andb	%al, %cl
	movb	%cl, -39(%rsp)
	movl	%edx, %ebx
	orl	$1, %ebx
	testb	%cl, %cl
	cmovel	%edx, %ebx
	movl	%ebx, -124(%rsp)
	movb	%al, -40(%rsp)
	movb	(%r14), %cl
	andb	%al, %cl
	movb	%cl, -41(%rsp)
	movl	%esi, %edx
	orl	$1, %edx
	testb	%cl, %cl
	cmovel	%esi, %edx
	movl	%edx, -128(%rsp)
	movb	%al, -105(%rsp)
	movl	(%rdi), %ecx
	movl	%ecx, %edx
	sarl	%edx
	testb	%al, %al
	cmovel	%ecx, %edx
	movl	%edx, (%rdi)
	movb	-105(%rsp), %al
	testb	%al, %al
	movq	%r10, %rcx
	cmovneq	%r8, %rcx
	movl	(%rcx), %edx
	sarl	%edx
	testb	%al, %al
	cmovel	4(%rdi), %edx
	movl	%edx, (%rcx)
	movb	-105(%rsp), %al
	testb	%al, %al
	movq	%r11, %rcx
	cmovneq	%r9, %rcx
	movl	(%rcx), %edx
	sarl	%edx
	testb	%al, %al
	cmovel	8(%rdi), %edx
	movl	%edx, (%rcx)
	movb	-105(%rsp), %al
	movl	-128(%rsp), %esi
	movl	-124(%rsp), %edx
	addl	%esi, %esi
	addl	%edx, %edx
	movl	-120(%rsp), %ebp
	addl	%ebp, %ebp
	testb	%al, %al
	cmovel	-128(%rsp), %esi
	movl	%esi, -128(%rsp)
	cmovel	-124(%rsp), %edx
	movl	%edx, -124(%rsp)
	cmovel	-120(%rsp), %ebp
	movl	%ebp, -120(%rsp)
	movq	%r10, %r15
	cmovneq	%r8, %r15
	movq	%r11, %r14
	cmovneq	%r9, %r14
	movb	(%rdi), %bl
	andb	%al, %bl
	movb	%bl, -42(%rsp)
	movl	%ebp, %ecx
	orl	$1, %ecx
	testb	%bl, %bl
	cmovel	%ebp, %ecx
	movl	%ecx, -120(%rsp)
	movb	%al, -43(%rsp)
	movb	(%r15), %cl
	andb	%al, %cl
	movb	%cl, -44(%rsp)
	movl	%edx, %ebx
	orl	$1, %ebx
	testb	%cl, %cl
	cmovel	%edx, %ebx
	movl	%ebx, -124(%rsp)
	movb	%al, -45(%rsp)
	movb	(%r14), %cl
	andb	%al, %cl
	movb	%cl, -46(%rsp)
	movl	%esi, %edx
	orl	$1, %edx
	testb	%cl, %cl
	cmovel	%esi, %edx
	movl	%edx, -128(%rsp)
	movb	%al, -106(%rsp)
	movl	(%rdi), %ecx
	movl	%ecx, %edx
	sarl	%edx
	testb	%al, %al
	cmovel	%ecx, %edx
	movl	%edx, (%rdi)
	movb	-106(%rsp), %al
	testb	%al, %al
	movq	%r10, %rcx
	cmovneq	%r8, %rcx
	movl	(%rcx), %edx
	sarl	%edx
	testb	%al, %al
	cmovel	4(%rdi), %edx
	movl	%edx, (%rcx)
	movb	-106(%rsp), %al
	testb	%al, %al
	movq	%r11, %rcx
	cmovneq	%r9, %rcx
	movl	(%rcx), %edx
	sarl	%edx
	testb	%al, %al
	cmovel	8(%rdi), %edx
	movl	%edx, (%rcx)
	movb	-106(%rsp), %al
	movl	-128(%rsp), %esi
	movl	-124(%rsp), %edx
	addl	%esi, %esi
	addl	%edx, %edx
	movl	-120(%rsp), %ebp
	addl	%ebp, %ebp
	testb	%al, %al
	cmovel	-128(%rsp), %esi
	movl	%esi, -128(%rsp)
	cmovel	-124(%rsp), %edx
	movl	%edx, -124(%rsp)
	cmovel	-120(%rsp), %ebp
	movl	%ebp, -120(%rsp)
	movq	%r10, %r15
	cmovneq	%r8, %r15
	movq	%r11, %r14
	cmovneq	%r9, %r14
	movb	(%rdi), %bl
	andb	%al, %bl
	movb	%bl, -47(%rsp)
	movl	%ebp, %ecx
	orl	$1, %ecx
	testb	%bl, %bl
	cmovel	%ebp, %ecx
	movl	%ecx, -120(%rsp)
	movb	%al, -48(%rsp)
	movb	(%r15), %cl
	andb	%al, %cl
	movb	%cl, -49(%rsp)
	movl	%edx, %ebx
	orl	$1, %ebx
	testb	%cl, %cl
	cmovel	%edx, %ebx
	movl	%ebx, -124(%rsp)
	movb	%al, -50(%rsp)
	movb	(%r14), %cl
	andb	%al, %cl
	movb	%cl, -51(%rsp)
	movl	%esi, %edx
	orl	$1, %edx
	testb	%cl, %cl
	cmovel	%esi, %edx
	movl	%edx, -128(%rsp)
	movb	%al, -107(%rsp)
	movl	(%rdi), %ecx
	movl	%ecx, %edx
	sarl	%edx
	testb	%al, %al
	cmovel	%ecx, %edx
	movl	%edx, (%rdi)
	movb	-107(%rsp), %al
	testb	%al, %al
	movq	%r10, %rcx
	cmovneq	%r8, %rcx
	movl	(%rcx), %edx
	sarl	%edx
	testb	%al, %al
	cmovel	4(%rdi), %edx
	movl	%edx, (%rcx)
	movb	-107(%rsp), %al
	testb	%al, %al
	movq	%r11, %rcx
	cmovneq	%r9, %rcx
	movl	(%rcx), %edx
	sarl	%edx
	testb	%al, %al
	cmovel	8(%rdi), %edx
	movl	%edx, (%rcx)
	movb	-107(%rsp), %al
	movl	-128(%rsp), %esi
	movl	-124(%rsp), %edx
	addl	%esi, %esi
	addl	%edx, %edx
	movl	-120(%rsp), %ebp
	addl	%ebp, %ebp
	testb	%al, %al
	cmovel	-128(%rsp), %esi
	movl	%esi, -128(%rsp)
	cmovel	-124(%rsp), %edx
	movl	%edx, -124(%rsp)
	cmovel	-120(%rsp), %ebp
	movl	%ebp, -120(%rsp)
	movq	%r10, %r15
	cmovneq	%r8, %r15
	movq	%r11, %r14
	cmovneq	%r9, %r14
	movb	(%rdi), %bl
	andb	%al, %bl
	movb	%bl, -52(%rsp)
	movl	%ebp, %ecx
	orl	$1, %ecx
	testb	%bl, %bl
	cmovel	%ebp, %ecx
	movl	%ecx, -120(%rsp)
	movb	%al, -53(%rsp)
	movb	(%r15), %cl
	andb	%al, %cl
	movb	%cl, -54(%rsp)
	movl	%edx, %ebx
	orl	$1, %ebx
	testb	%cl, %cl
	cmovel	%edx, %ebx
	movl	%ebx, -124(%rsp)
	movb	%al, -55(%rsp)
	movb	(%r14), %cl
	andb	%al, %cl
	movb	%cl, -56(%rsp)
	movl	%esi, %edx
	orl	$1, %edx
	testb	%cl, %cl
	cmovel	%esi, %edx
	movl	%edx, -128(%rsp)
	movb	%al, -108(%rsp)
	movl	(%rdi), %ecx
	movl	%ecx, %edx
	sarl	%edx
	testb	%al, %al
	cmovel	%ecx, %edx
	movl	%edx, (%rdi)
	movb	-108(%rsp), %al
	testb	%al, %al
	movq	%r10, %rcx
	cmovneq	%r8, %rcx
	movl	(%rcx), %edx
	sarl	%edx
	testb	%al, %al
	cmovel	4(%rdi), %edx
	movl	%edx, (%rcx)
	movb	-108(%rsp), %al
	testb	%al, %al
	movq	%r11, %rcx
	cmovneq	%r9, %rcx
	movl	(%rcx), %edx
	sarl	%edx
	testb	%al, %al
	cmovel	8(%rdi), %edx
	movl	%edx, (%rcx)
	movb	-108(%rsp), %al
	movl	-128(%rsp), %esi
	movl	-124(%rsp), %edx
	addl	%esi, %esi
	addl	%edx, %edx
	movl	-120(%rsp), %ebp
	addl	%ebp, %ebp
	testb	%al, %al
	cmovel	-128(%rsp), %esi
	movl	%esi, -128(%rsp)
	cmovel	-124(%rsp), %edx
	movl	%edx, -124(%rsp)
	cmovel	-120(%rsp), %ebp
	movl	%ebp, -120(%rsp)
	movq	%r10, %r15
	cmovneq	%r8, %r15
	movq	%r11, %r14
	cmovneq	%r9, %r14
	movb	(%rdi), %bl
	andb	%al, %bl
	movb	%bl, -57(%rsp)
	movl	%ebp, %ecx
	orl	$1, %ecx
	testb	%bl, %bl
	cmovel	%ebp, %ecx
	movl	%ecx, -120(%rsp)
	movb	%al, -58(%rsp)
	movb	(%r15), %cl
	andb	%al, %cl
	movb	%cl, -59(%rsp)
	movl	%edx, %ebx
	orl	$1, %ebx
	testb	%cl, %cl
	cmovel	%edx, %ebx
	movl	%ebx, -124(%rsp)
	movb	%al, -60(%rsp)
	movb	(%r14), %cl
	andb	%al, %cl
	movb	%cl, -61(%rsp)
	movl	%esi, %edx
	orl	$1, %edx
	testb	%cl, %cl
	cmovel	%esi, %edx
	movl	%edx, -128(%rsp)
	movb	%al, -109(%rsp)
	movl	(%rdi), %ecx
	movl	%ecx, %edx
	sarl	%edx
	testb	%al, %al
	cmovel	%ecx, %edx
	movl	%edx, (%rdi)
	movb	-109(%rsp), %al
	testb	%al, %al
	movq	%r10, %rcx
	cmovneq	%r8, %rcx
	movl	(%rcx), %edx
	sarl	%edx
	testb	%al, %al
	cmovel	4(%rdi), %edx
	movl	%edx, (%rcx)
	movb	-109(%rsp), %al
	testb	%al, %al
	movq	%r11, %rcx
	cmovneq	%r9, %rcx
	movl	(%rcx), %edx
	sarl	%edx
	testb	%al, %al
	cmovel	8(%rdi), %edx
	movl	%edx, (%rcx)
	movb	-109(%rsp), %al
	movl	-128(%rsp), %esi
	movl	-124(%rsp), %edx
	addl	%esi, %esi
	addl	%edx, %edx
	movl	-120(%rsp), %ebp
	addl	%ebp, %ebp
	testb	%al, %al
	cmovel	-128(%rsp), %esi
	movl	%esi, -128(%rsp)
	cmovel	-124(%rsp), %edx
	movl	%edx, -124(%rsp)
	cmovel	-120(%rsp), %ebp
	movl	%ebp, -120(%rsp)
	movq	%r10, %r15
	cmovneq	%r8, %r15
	movq	%r11, %r14
	cmovneq	%r9, %r14
	movb	(%rdi), %bl
	andb	%al, %bl
	movb	%bl, -62(%rsp)
	movl	%ebp, %ecx
	orl	$1, %ecx
	testb	%bl, %bl
	cmovel	%ebp, %ecx
	movl	%ecx, -120(%rsp)
	movb	%al, -63(%rsp)
	movb	(%r15), %cl
	andb	%al, %cl
	movb	%cl, -64(%rsp)
	movl	%edx, %ebx
	orl	$1, %ebx
	testb	%cl, %cl
	cmovel	%edx, %ebx
	movl	%ebx, -124(%rsp)
	movb	%al, -65(%rsp)
	movb	(%r14), %cl
	andb	%al, %cl
	movb	%cl, -66(%rsp)
	movl	%esi, %edx
	orl	$1, %edx
	testb	%cl, %cl
	cmovel	%esi, %edx
	movl	%edx, -128(%rsp)
	movb	%al, -110(%rsp)
	movl	(%rdi), %ecx
	movl	%ecx, %edx
	sarl	%edx
	testb	%al, %al
	cmovel	%ecx, %edx
	movl	%edx, (%rdi)
	movb	-110(%rsp), %al
	testb	%al, %al
	movq	%r10, %rcx
	cmovneq	%r8, %rcx
	movl	(%rcx), %edx
	sarl	%edx
	testb	%al, %al
	cmovel	4(%rdi), %edx
	movl	%edx, (%rcx)
	movb	-110(%rsp), %al
	testb	%al, %al
	movq	%r11, %rcx
	cmovneq	%r9, %rcx
	movl	(%rcx), %edx
	sarl	%edx
	testb	%al, %al
	cmovel	8(%rdi), %edx
	movl	%edx, (%rcx)
	movb	-110(%rsp), %al
	movl	-128(%rsp), %esi
	movl	-124(%rsp), %edx
	addl	%esi, %esi
	addl	%edx, %edx
	movl	-120(%rsp), %ebp
	addl	%ebp, %ebp
	testb	%al, %al
	cmovel	-128(%rsp), %esi
	movl	%esi, -128(%rsp)
	cmovel	-124(%rsp), %edx
	movl	%edx, -124(%rsp)
	cmovel	-120(%rsp), %ebp
	movl	%ebp, -120(%rsp)
	movq	%r10, %r15
	cmovneq	%r8, %r15
	movq	%r11, %r14
	cmovneq	%r9, %r14
	movb	(%rdi), %bl
	andb	%al, %bl
	movb	%bl, -67(%rsp)
	movl	%ebp, %ecx
	orl	$1, %ecx
	testb	%bl, %bl
	cmovel	%ebp, %ecx
	movl	%ecx, -120(%rsp)
	movb	%al, -68(%rsp)
	movb	(%r15), %cl
	andb	%al, %cl
	movb	%cl, -69(%rsp)
	movl	%edx, %ebx
	orl	$1, %ebx
	testb	%cl, %cl
	cmovel	%edx, %ebx
	movl	%ebx, -124(%rsp)
	movb	%al, -70(%rsp)
	movb	(%r14), %cl
	andb	%al, %cl
	movb	%cl, -71(%rsp)
	movl	%esi, %edx
	orl	$1, %edx
	testb	%cl, %cl
	cmovel	%esi, %edx
	movl	%edx, -128(%rsp)
	movb	%al, -111(%rsp)
	movl	(%rdi), %ecx
	movl	%ecx, %edx
	sarl	%edx
	testb	%al, %al
	cmovel	%ecx, %edx
	movl	%edx, (%rdi)
	movb	-111(%rsp), %al
	testb	%al, %al
	movq	%r10, %rcx
	cmovneq	%r8, %rcx
	movl	(%rcx), %edx
	sarl	%edx
	testb	%al, %al
	cmovel	4(%rdi), %edx
	movl	%edx, (%rcx)
	movb	-111(%rsp), %al
	testb	%al, %al
	movq	%r11, %rcx
	cmovneq	%r9, %rcx
	movl	(%rcx), %edx
	sarl	%edx
	testb	%al, %al
	cmovel	8(%rdi), %edx
	movl	%edx, (%rcx)
	movb	-111(%rsp), %al
	movl	-128(%rsp), %esi
	movl	-124(%rsp), %edx
	addl	%esi, %esi
	addl	%edx, %edx
	movl	-120(%rsp), %ebp
	addl	%ebp, %ebp
	testb	%al, %al
	cmovel	-128(%rsp), %esi
	movl	%esi, -128(%rsp)
	cmovel	-124(%rsp), %edx
	movl	%edx, -124(%rsp)
	cmovel	-120(%rsp), %ebp
	movl	%ebp, -120(%rsp)
	movq	%r10, %r15
	cmovneq	%r8, %r15
	movq	%r11, %r14
	cmovneq	%r9, %r14
	movb	(%rdi), %bl
	andb	%al, %bl
	movb	%bl, -72(%rsp)
	movl	%ebp, %ecx
	orl	$1, %ecx
	testb	%bl, %bl
	cmovel	%ebp, %ecx
	movl	%ecx, -120(%rsp)
	movb	%al, -73(%rsp)
	movb	(%r15), %cl
	andb	%al, %cl
	movb	%cl, -74(%rsp)
	movl	%edx, %ebx
	orl	$1, %ebx
	testb	%cl, %cl
	cmovel	%edx, %ebx
	movl	%ebx, -124(%rsp)
	movb	%al, -75(%rsp)
	movb	(%r14), %cl
	andb	%al, %cl
	movb	%cl, -76(%rsp)
	movl	%esi, %edx
	orl	$1, %edx
	testb	%cl, %cl
	cmovel	%esi, %edx
	movl	%edx, -128(%rsp)
	movb	%al, -112(%rsp)
	movl	(%rdi), %ecx
	movl	%ecx, %edx
	sarl	%edx
	testb	%al, %al
	cmovel	%ecx, %edx
	movl	%edx, (%rdi)
	movb	-112(%rsp), %al
	testb	%al, %al
	movq	%r10, %rcx
	cmovneq	%r8, %rcx
	movl	(%rcx), %edx
	sarl	%edx
	testb	%al, %al
	cmovel	4(%rdi), %edx
	movl	%edx, (%rcx)
	movb	-112(%rsp), %al
	testb	%al, %al
	movq	%r11, %rcx
	cmovneq	%r9, %rcx
	movl	(%rcx), %edx
	sarl	%edx
	testb	%al, %al
	cmovel	8(%rdi), %edx
	movl	%edx, (%rcx)
	movb	-112(%rsp), %al
	movl	-128(%rsp), %esi
	movl	-124(%rsp), %edx
	addl	%esi, %esi
	addl	%edx, %edx
	movl	-120(%rsp), %ebp
	addl	%ebp, %ebp
	testb	%al, %al
	cmovel	-128(%rsp), %esi
	movl	%esi, -128(%rsp)
	cmovel	-124(%rsp), %edx
	movl	%edx, -124(%rsp)
	cmovel	-120(%rsp), %ebp
	movl	%ebp, -120(%rsp)
	movq	%r10, %r15
	cmovneq	%r8, %r15
	movq	%r11, %r14
	cmovneq	%r9, %r14
	movb	(%rdi), %bl
	andb	%al, %bl
	movb	%bl, -77(%rsp)
	movl	%ebp, %ecx
	orl	$1, %ecx
	testb	%bl, %bl
	cmovel	%ebp, %ecx
	movl	%ecx, -120(%rsp)
	movb	%al, -78(%rsp)
	movb	(%r15), %cl
	andb	%al, %cl
	movb	%cl, -79(%rsp)
	movl	%edx, %ebx
	orl	$1, %ebx
	testb	%cl, %cl
	cmovel	%edx, %ebx
	movl	%ebx, -124(%rsp)
	movb	%al, -80(%rsp)
	movb	(%r14), %cl
	andb	%al, %cl
	movb	%cl, -81(%rsp)
	movl	%esi, %edx
	orl	$1, %edx
	testb	%cl, %cl
	cmovel	%esi, %edx
	movl	%edx, -128(%rsp)
	movb	%al, -113(%rsp)
	movl	(%rdi), %ecx
	movl	%ecx, %edx
	sarl	%edx
	testb	%al, %al
	cmovel	%ecx, %edx
	movl	%edx, (%rdi)
	movb	-113(%rsp), %al
	testb	%al, %al
	movq	%r10, %rcx
	cmovneq	%r8, %rcx
	movl	(%rcx), %edx
	sarl	%edx
	testb	%al, %al
	cmovel	4(%rdi), %edx
	movl	%edx, (%rcx)
	movb	-113(%rsp), %al
	testb	%al, %al
	movq	%r11, %rcx
	cmovneq	%r9, %rcx
	movl	(%rcx), %edx
	sarl	%edx
	testb	%al, %al
	leaq	-120(%rsp), %rax
	leaq	-124(%rsp), %rsi
	cmovel	8(%rdi), %edx
	movl	%edx, (%rcx)
	cmpb	$0, -113(%rsp)
	leaq	-128(%rsp), %rcx
	cmoveq	%rdi, %rcx
	movl	(%rcx), %ecx
	movl	%ecx, (%rdi)
	cmpb	$0, -113(%rsp)
	cmovneq	%r8, %r10
	cmoveq	%r8, %rsi
	movl	(%rsi), %ecx
	movl	%ecx, (%r10)
	cmpb	$0, -113(%rsp)
	cmovneq	%r9, %r11
	cmoveq	%r9, %rax
	movl	(%rax), %eax
	movl	%eax, (%r11)
	addq	$88, %rsp
	.cfi_def_cfa_offset 40
	popq	%rbx
	.cfi_def_cfa_offset 32
	popq	%r14
	.cfi_def_cfa_offset 24
	popq	%r15
	.cfi_def_cfa_offset 16
	popq	%rbp
	.cfi_def_cfa_offset 8
	retq
.Lfunc_end1:
	.size	mu, .Lfunc_end1-mu
	.cfi_endproc
                                        # -- End function
	.type	.L__const.main.a,@object # @__const.main.a
	.section	.rodata,"a",@progbits
	.p2align	2
.L__const.main.a:
	.long	1                       # 0x1
	.long	3                       # 0x3
	.long	5                       # 0x5
	.size	.L__const.main.a, 12

	.type	.L.str,@object          # @.str
	.section	.rodata.str1.1,"aMS",@progbits,1
.L.str:
	.asciz	"%d\t%d\t%d\n"
	.size	.L.str, 10

	.ident	"clang version 10.0.0 "
	.ident	"clang version 10.0.0 "
	.section	".note.GNU-stack","",@progbits
