	.text
	.file	"comp2.c"
	.globl	comp                    # -- Begin function comp
	.p2align	4, 0x90
	.type	comp,@function
comp:                                   # @comp
.Lfunc_begin0:
	.file	1 "/home/luigi/dev/ufmg/static-analysis/side-channel/lif/llvm/bench/comp/sources/comp2.c"
	.loc	1 5 0                   # comp/sources/comp2.c:5:0
	.cfi_startproc
# %bb.0:
	#DEBUG_VALUE: comp:a <- $rdi
	#DEBUG_VALUE: comp:a <- $rdi
	#DEBUG_VALUE: comp:b <- $rsi
	#DEBUG_VALUE: comp:b <- $rsi
	#DEBUG_VALUE: i <- 0
	pushq	%rbp
	.cfi_def_cfa_offset 16
	.cfi_offset %rbp, -16
	movq	%rsp, %rbp
	.cfi_def_cfa_register %rbp
	#DEBUG_VALUE: i <- 0
.Ltmp0:
	.loc	1 7 13 prologue_end     # comp/sources/comp2.c:7:13
	movl	(%rdi), %ecx
	xorl	%eax, %eax
	.loc	1 7 18 is_stmt 0        # comp/sources/comp2.c:7:18
	cmpl	(%rsi), %ecx
.Ltmp1:
	#DEBUG_VALUE: i <- 1
	.loc	1 7 13                  # comp/sources/comp2.c:7:13
	jne	.LBB0_33
.Ltmp2:
# %bb.1:
	#DEBUG_VALUE: i <- 1
	#DEBUG_VALUE: comp:b <- $rsi
	#DEBUG_VALUE: comp:a <- $rdi
	#DEBUG_VALUE: i <- 1
	.loc	1 7 13                  # comp/sources/comp2.c:7:13
	movl	4(%rdi), %ecx
	.loc	1 7 18                  # comp/sources/comp2.c:7:18
	cmpl	4(%rsi), %ecx
.Ltmp3:
	#DEBUG_VALUE: i <- 2
	.loc	1 7 13                  # comp/sources/comp2.c:7:13
	jne	.LBB0_33
.Ltmp4:
# %bb.2:
	#DEBUG_VALUE: i <- 2
	#DEBUG_VALUE: comp:b <- $rsi
	#DEBUG_VALUE: comp:a <- $rdi
	#DEBUG_VALUE: i <- 2
	.loc	1 7 13                  # comp/sources/comp2.c:7:13
	movl	8(%rdi), %ecx
	.loc	1 7 18                  # comp/sources/comp2.c:7:18
	cmpl	8(%rsi), %ecx
.Ltmp5:
	#DEBUG_VALUE: i <- 3
	.loc	1 7 13                  # comp/sources/comp2.c:7:13
	jne	.LBB0_33
.Ltmp6:
# %bb.3:
	#DEBUG_VALUE: i <- 3
	#DEBUG_VALUE: comp:b <- $rsi
	#DEBUG_VALUE: comp:a <- $rdi
	#DEBUG_VALUE: i <- 3
	.loc	1 7 13                  # comp/sources/comp2.c:7:13
	movl	12(%rdi), %ecx
	.loc	1 7 18                  # comp/sources/comp2.c:7:18
	cmpl	12(%rsi), %ecx
.Ltmp7:
	#DEBUG_VALUE: i <- 4
	.loc	1 7 13                  # comp/sources/comp2.c:7:13
	jne	.LBB0_33
.Ltmp8:
# %bb.4:
	#DEBUG_VALUE: i <- 4
	#DEBUG_VALUE: comp:b <- $rsi
	#DEBUG_VALUE: comp:a <- $rdi
	#DEBUG_VALUE: i <- 4
	.loc	1 7 13                  # comp/sources/comp2.c:7:13
	movl	16(%rdi), %ecx
	.loc	1 7 18                  # comp/sources/comp2.c:7:18
	cmpl	16(%rsi), %ecx
.Ltmp9:
	#DEBUG_VALUE: i <- 5
	.loc	1 7 13                  # comp/sources/comp2.c:7:13
	jne	.LBB0_33
.Ltmp10:
# %bb.5:
	#DEBUG_VALUE: i <- 5
	#DEBUG_VALUE: comp:b <- $rsi
	#DEBUG_VALUE: comp:a <- $rdi
	#DEBUG_VALUE: i <- 5
	.loc	1 7 13                  # comp/sources/comp2.c:7:13
	movl	20(%rdi), %ecx
	.loc	1 7 18                  # comp/sources/comp2.c:7:18
	cmpl	20(%rsi), %ecx
.Ltmp11:
	#DEBUG_VALUE: i <- 6
	.loc	1 7 13                  # comp/sources/comp2.c:7:13
	jne	.LBB0_33
.Ltmp12:
# %bb.6:
	#DEBUG_VALUE: i <- 6
	#DEBUG_VALUE: comp:b <- $rsi
	#DEBUG_VALUE: comp:a <- $rdi
	#DEBUG_VALUE: i <- 6
	.loc	1 7 13                  # comp/sources/comp2.c:7:13
	movl	24(%rdi), %ecx
	.loc	1 7 18                  # comp/sources/comp2.c:7:18
	cmpl	24(%rsi), %ecx
.Ltmp13:
	#DEBUG_VALUE: i <- 7
	.loc	1 7 13                  # comp/sources/comp2.c:7:13
	jne	.LBB0_33
.Ltmp14:
# %bb.7:
	#DEBUG_VALUE: i <- 7
	#DEBUG_VALUE: comp:b <- $rsi
	#DEBUG_VALUE: comp:a <- $rdi
	#DEBUG_VALUE: i <- 7
	.loc	1 7 13                  # comp/sources/comp2.c:7:13
	movl	28(%rdi), %ecx
	.loc	1 7 18                  # comp/sources/comp2.c:7:18
	cmpl	28(%rsi), %ecx
.Ltmp15:
	#DEBUG_VALUE: i <- 8
	.loc	1 7 13                  # comp/sources/comp2.c:7:13
	jne	.LBB0_33
.Ltmp16:
# %bb.8:
	#DEBUG_VALUE: i <- 8
	#DEBUG_VALUE: comp:b <- $rsi
	#DEBUG_VALUE: comp:a <- $rdi
	#DEBUG_VALUE: i <- 8
	.loc	1 7 13                  # comp/sources/comp2.c:7:13
	movl	32(%rdi), %ecx
	.loc	1 7 18                  # comp/sources/comp2.c:7:18
	cmpl	32(%rsi), %ecx
.Ltmp17:
	#DEBUG_VALUE: i <- 9
	.loc	1 7 13                  # comp/sources/comp2.c:7:13
	jne	.LBB0_33
.Ltmp18:
# %bb.9:
	#DEBUG_VALUE: i <- 9
	#DEBUG_VALUE: comp:b <- $rsi
	#DEBUG_VALUE: comp:a <- $rdi
	#DEBUG_VALUE: i <- 9
	.loc	1 7 13                  # comp/sources/comp2.c:7:13
	movl	36(%rdi), %ecx
	.loc	1 7 18                  # comp/sources/comp2.c:7:18
	cmpl	36(%rsi), %ecx
.Ltmp19:
	#DEBUG_VALUE: i <- 10
	.loc	1 7 13                  # comp/sources/comp2.c:7:13
	jne	.LBB0_33
.Ltmp20:
# %bb.10:
	#DEBUG_VALUE: i <- 10
	#DEBUG_VALUE: comp:b <- $rsi
	#DEBUG_VALUE: comp:a <- $rdi
	#DEBUG_VALUE: i <- 10
	.loc	1 7 13                  # comp/sources/comp2.c:7:13
	movl	40(%rdi), %ecx
	.loc	1 7 18                  # comp/sources/comp2.c:7:18
	cmpl	40(%rsi), %ecx
.Ltmp21:
	#DEBUG_VALUE: i <- 11
	.loc	1 7 13                  # comp/sources/comp2.c:7:13
	jne	.LBB0_33
.Ltmp22:
# %bb.11:
	#DEBUG_VALUE: i <- 11
	#DEBUG_VALUE: comp:b <- $rsi
	#DEBUG_VALUE: comp:a <- $rdi
	#DEBUG_VALUE: i <- 11
	.loc	1 7 13                  # comp/sources/comp2.c:7:13
	movl	44(%rdi), %ecx
	.loc	1 7 18                  # comp/sources/comp2.c:7:18
	cmpl	44(%rsi), %ecx
.Ltmp23:
	#DEBUG_VALUE: i <- 12
	.loc	1 7 13                  # comp/sources/comp2.c:7:13
	jne	.LBB0_33
.Ltmp24:
# %bb.12:
	#DEBUG_VALUE: i <- 12
	#DEBUG_VALUE: comp:b <- $rsi
	#DEBUG_VALUE: comp:a <- $rdi
	#DEBUG_VALUE: i <- 12
	.loc	1 7 13                  # comp/sources/comp2.c:7:13
	movl	48(%rdi), %ecx
	.loc	1 7 18                  # comp/sources/comp2.c:7:18
	cmpl	48(%rsi), %ecx
.Ltmp25:
	#DEBUG_VALUE: i <- 13
	.loc	1 7 13                  # comp/sources/comp2.c:7:13
	jne	.LBB0_33
.Ltmp26:
# %bb.13:
	#DEBUG_VALUE: i <- 13
	#DEBUG_VALUE: comp:b <- $rsi
	#DEBUG_VALUE: comp:a <- $rdi
	#DEBUG_VALUE: i <- 13
	.loc	1 7 13                  # comp/sources/comp2.c:7:13
	movl	52(%rdi), %ecx
	.loc	1 7 18                  # comp/sources/comp2.c:7:18
	cmpl	52(%rsi), %ecx
.Ltmp27:
	#DEBUG_VALUE: i <- 14
	.loc	1 7 13                  # comp/sources/comp2.c:7:13
	jne	.LBB0_33
.Ltmp28:
# %bb.14:
	#DEBUG_VALUE: i <- 14
	#DEBUG_VALUE: comp:b <- $rsi
	#DEBUG_VALUE: comp:a <- $rdi
	#DEBUG_VALUE: i <- 14
	.loc	1 7 13                  # comp/sources/comp2.c:7:13
	movl	56(%rdi), %ecx
	.loc	1 7 18                  # comp/sources/comp2.c:7:18
	cmpl	56(%rsi), %ecx
.Ltmp29:
	#DEBUG_VALUE: i <- 15
	.loc	1 7 13                  # comp/sources/comp2.c:7:13
	jne	.LBB0_33
.Ltmp30:
# %bb.15:
	#DEBUG_VALUE: i <- 15
	#DEBUG_VALUE: comp:b <- $rsi
	#DEBUG_VALUE: comp:a <- $rdi
	#DEBUG_VALUE: i <- 15
	.loc	1 7 13                  # comp/sources/comp2.c:7:13
	movl	60(%rdi), %ecx
	.loc	1 7 18                  # comp/sources/comp2.c:7:18
	cmpl	60(%rsi), %ecx
.Ltmp31:
	#DEBUG_VALUE: i <- 16
	.loc	1 7 13                  # comp/sources/comp2.c:7:13
	jne	.LBB0_33
.Ltmp32:
# %bb.16:
	#DEBUG_VALUE: i <- 16
	#DEBUG_VALUE: comp:b <- $rsi
	#DEBUG_VALUE: comp:a <- $rdi
	#DEBUG_VALUE: i <- 16
	.loc	1 7 13                  # comp/sources/comp2.c:7:13
	movl	64(%rdi), %ecx
	.loc	1 7 18                  # comp/sources/comp2.c:7:18
	cmpl	64(%rsi), %ecx
.Ltmp33:
	#DEBUG_VALUE: i <- 17
	.loc	1 7 13                  # comp/sources/comp2.c:7:13
	jne	.LBB0_33
.Ltmp34:
# %bb.17:
	#DEBUG_VALUE: i <- 17
	#DEBUG_VALUE: comp:b <- $rsi
	#DEBUG_VALUE: comp:a <- $rdi
	#DEBUG_VALUE: i <- 17
	.loc	1 7 13                  # comp/sources/comp2.c:7:13
	movl	68(%rdi), %ecx
	.loc	1 7 18                  # comp/sources/comp2.c:7:18
	cmpl	68(%rsi), %ecx
.Ltmp35:
	#DEBUG_VALUE: i <- 18
	.loc	1 7 13                  # comp/sources/comp2.c:7:13
	jne	.LBB0_33
.Ltmp36:
# %bb.18:
	#DEBUG_VALUE: i <- 18
	#DEBUG_VALUE: comp:b <- $rsi
	#DEBUG_VALUE: comp:a <- $rdi
	#DEBUG_VALUE: i <- 18
	.loc	1 7 13                  # comp/sources/comp2.c:7:13
	movl	72(%rdi), %ecx
	.loc	1 7 18                  # comp/sources/comp2.c:7:18
	cmpl	72(%rsi), %ecx
.Ltmp37:
	#DEBUG_VALUE: i <- 19
	.loc	1 7 13                  # comp/sources/comp2.c:7:13
	jne	.LBB0_33
.Ltmp38:
# %bb.19:
	#DEBUG_VALUE: i <- 19
	#DEBUG_VALUE: comp:b <- $rsi
	#DEBUG_VALUE: comp:a <- $rdi
	#DEBUG_VALUE: i <- 19
	.loc	1 7 13                  # comp/sources/comp2.c:7:13
	movl	76(%rdi), %ecx
	.loc	1 7 18                  # comp/sources/comp2.c:7:18
	cmpl	76(%rsi), %ecx
.Ltmp39:
	#DEBUG_VALUE: i <- 20
	.loc	1 7 13                  # comp/sources/comp2.c:7:13
	jne	.LBB0_33
.Ltmp40:
# %bb.20:
	#DEBUG_VALUE: i <- 20
	#DEBUG_VALUE: comp:b <- $rsi
	#DEBUG_VALUE: comp:a <- $rdi
	#DEBUG_VALUE: i <- 20
	.loc	1 7 13                  # comp/sources/comp2.c:7:13
	movl	80(%rdi), %ecx
	.loc	1 7 18                  # comp/sources/comp2.c:7:18
	cmpl	80(%rsi), %ecx
.Ltmp41:
	#DEBUG_VALUE: i <- 21
	.loc	1 7 13                  # comp/sources/comp2.c:7:13
	jne	.LBB0_33
.Ltmp42:
# %bb.21:
	#DEBUG_VALUE: i <- 21
	#DEBUG_VALUE: comp:b <- $rsi
	#DEBUG_VALUE: comp:a <- $rdi
	#DEBUG_VALUE: i <- 21
	.loc	1 7 13                  # comp/sources/comp2.c:7:13
	movl	84(%rdi), %ecx
	.loc	1 7 18                  # comp/sources/comp2.c:7:18
	cmpl	84(%rsi), %ecx
.Ltmp43:
	#DEBUG_VALUE: i <- 22
	.loc	1 7 13                  # comp/sources/comp2.c:7:13
	jne	.LBB0_33
.Ltmp44:
# %bb.22:
	#DEBUG_VALUE: i <- 22
	#DEBUG_VALUE: comp:b <- $rsi
	#DEBUG_VALUE: comp:a <- $rdi
	#DEBUG_VALUE: i <- 22
	.loc	1 7 13                  # comp/sources/comp2.c:7:13
	movl	88(%rdi), %ecx
	.loc	1 7 18                  # comp/sources/comp2.c:7:18
	cmpl	88(%rsi), %ecx
.Ltmp45:
	#DEBUG_VALUE: i <- 23
	.loc	1 7 13                  # comp/sources/comp2.c:7:13
	jne	.LBB0_33
.Ltmp46:
# %bb.23:
	#DEBUG_VALUE: i <- 23
	#DEBUG_VALUE: comp:b <- $rsi
	#DEBUG_VALUE: comp:a <- $rdi
	#DEBUG_VALUE: i <- 23
	.loc	1 7 13                  # comp/sources/comp2.c:7:13
	movl	92(%rdi), %ecx
	.loc	1 7 18                  # comp/sources/comp2.c:7:18
	cmpl	92(%rsi), %ecx
.Ltmp47:
	#DEBUG_VALUE: i <- 24
	.loc	1 7 13                  # comp/sources/comp2.c:7:13
	jne	.LBB0_33
.Ltmp48:
# %bb.24:
	#DEBUG_VALUE: i <- 24
	#DEBUG_VALUE: comp:b <- $rsi
	#DEBUG_VALUE: comp:a <- $rdi
	#DEBUG_VALUE: i <- 24
	.loc	1 7 13                  # comp/sources/comp2.c:7:13
	movl	96(%rdi), %ecx
	.loc	1 7 18                  # comp/sources/comp2.c:7:18
	cmpl	96(%rsi), %ecx
.Ltmp49:
	#DEBUG_VALUE: i <- 25
	.loc	1 7 13                  # comp/sources/comp2.c:7:13
	jne	.LBB0_33
.Ltmp50:
# %bb.25:
	#DEBUG_VALUE: i <- 25
	#DEBUG_VALUE: comp:b <- $rsi
	#DEBUG_VALUE: comp:a <- $rdi
	#DEBUG_VALUE: i <- 25
	.loc	1 7 13                  # comp/sources/comp2.c:7:13
	movl	100(%rdi), %ecx
	.loc	1 7 18                  # comp/sources/comp2.c:7:18
	cmpl	100(%rsi), %ecx
.Ltmp51:
	#DEBUG_VALUE: i <- 26
	.loc	1 7 13                  # comp/sources/comp2.c:7:13
	jne	.LBB0_33
.Ltmp52:
# %bb.26:
	#DEBUG_VALUE: i <- 26
	#DEBUG_VALUE: comp:b <- $rsi
	#DEBUG_VALUE: comp:a <- $rdi
	#DEBUG_VALUE: i <- 26
	.loc	1 7 13                  # comp/sources/comp2.c:7:13
	movl	104(%rdi), %ecx
	.loc	1 7 18                  # comp/sources/comp2.c:7:18
	cmpl	104(%rsi), %ecx
.Ltmp53:
	#DEBUG_VALUE: i <- 27
	.loc	1 7 13                  # comp/sources/comp2.c:7:13
	jne	.LBB0_33
.Ltmp54:
# %bb.27:
	#DEBUG_VALUE: i <- 27
	#DEBUG_VALUE: comp:b <- $rsi
	#DEBUG_VALUE: comp:a <- $rdi
	#DEBUG_VALUE: i <- 27
	.loc	1 7 13                  # comp/sources/comp2.c:7:13
	movl	108(%rdi), %ecx
	.loc	1 7 18                  # comp/sources/comp2.c:7:18
	cmpl	108(%rsi), %ecx
.Ltmp55:
	#DEBUG_VALUE: i <- 28
	.loc	1 7 13                  # comp/sources/comp2.c:7:13
	jne	.LBB0_33
.Ltmp56:
# %bb.28:
	#DEBUG_VALUE: i <- 28
	#DEBUG_VALUE: comp:b <- $rsi
	#DEBUG_VALUE: comp:a <- $rdi
	#DEBUG_VALUE: i <- 28
	.loc	1 7 13                  # comp/sources/comp2.c:7:13
	movl	112(%rdi), %ecx
	.loc	1 7 18                  # comp/sources/comp2.c:7:18
	cmpl	112(%rsi), %ecx
.Ltmp57:
	#DEBUG_VALUE: i <- 29
	.loc	1 7 13                  # comp/sources/comp2.c:7:13
	jne	.LBB0_33
.Ltmp58:
# %bb.29:
	#DEBUG_VALUE: i <- 29
	#DEBUG_VALUE: comp:b <- $rsi
	#DEBUG_VALUE: comp:a <- $rdi
	#DEBUG_VALUE: i <- 29
	.loc	1 7 13                  # comp/sources/comp2.c:7:13
	movl	116(%rdi), %ecx
	.loc	1 7 18                  # comp/sources/comp2.c:7:18
	cmpl	116(%rsi), %ecx
.Ltmp59:
	#DEBUG_VALUE: i <- 30
	.loc	1 7 13                  # comp/sources/comp2.c:7:13
	jne	.LBB0_33
.Ltmp60:
# %bb.30:
	#DEBUG_VALUE: i <- 30
	#DEBUG_VALUE: comp:b <- $rsi
	#DEBUG_VALUE: comp:a <- $rdi
	#DEBUG_VALUE: i <- 30
	.loc	1 7 13                  # comp/sources/comp2.c:7:13
	movl	120(%rdi), %ecx
	.loc	1 7 18                  # comp/sources/comp2.c:7:18
	cmpl	120(%rsi), %ecx
.Ltmp61:
	#DEBUG_VALUE: i <- 31
	.loc	1 7 13                  # comp/sources/comp2.c:7:13
	jne	.LBB0_33
.Ltmp62:
# %bb.31:
	#DEBUG_VALUE: i <- 31
	#DEBUG_VALUE: comp:b <- $rsi
	#DEBUG_VALUE: comp:a <- $rdi
	#DEBUG_VALUE: i <- 31
	.loc	1 7 13                  # comp/sources/comp2.c:7:13
	movl	124(%rdi), %ecx
	.loc	1 7 18                  # comp/sources/comp2.c:7:18
	cmpl	124(%rsi), %ecx
.Ltmp63:
	#DEBUG_VALUE: i <- 32
	.loc	1 7 13                  # comp/sources/comp2.c:7:13
	jne	.LBB0_33
.Ltmp64:
# %bb.32:
	#DEBUG_VALUE: i <- 32
	#DEBUG_VALUE: comp:b <- $rsi
	#DEBUG_VALUE: comp:a <- $rdi
	.loc	1 0 13                  # comp/sources/comp2.c:0:13
	movl	$1, %eax
.Ltmp65:
.LBB0_33:
	#DEBUG_VALUE: comp:b <- $rsi
	#DEBUG_VALUE: comp:a <- $rdi
	.loc	1 9 1 is_stmt 1         # comp/sources/comp2.c:9:1
	popq	%rbp
	.cfi_def_cfa %rsp, 8
	retq
.Ltmp66:
.Lfunc_end0:
	.size	comp, .Lfunc_end0-comp
	.cfi_endproc
                                        # -- End function
	.globl	main                    # -- Begin function main
	.p2align	4, 0x90
	.type	main,@function
main:                                   # @main
.Lfunc_begin1:
	.loc	1 11 0                  # comp/sources/comp2.c:11:0
	.cfi_startproc
# %bb.0:
	pushq	%rbp
	.cfi_def_cfa_offset 16
	.cfi_offset %rbp, -16
	movq	%rsp, %rbp
	.cfi_def_cfa_register %rbp
	subq	$272, %rsp              # imm = 0x110
	movq	%fs:40, %rax
	movq	%rax, -8(%rbp)
	movabsq	$4294967296, %rax       # imm = 0x100000000
.Ltmp67:
	#DEBUG_VALUE: i <- 0
	.loc	1 13 45 prologue_end    # comp/sources/comp2.c:13:45
	movq	%rax, -272(%rbp)
	.loc	1 13 38 is_stmt 0       # comp/sources/comp2.c:13:38
	movl	$0, -144(%rbp)
	movabsq	$8589934593, %rax       # imm = 0x200000001
.Ltmp68:
	#DEBUG_VALUE: i <- 1
	movq	%rax, -140(%rbp)
	movabsq	$12884901890, %rax      # imm = 0x300000002
.Ltmp69:
	#DEBUG_VALUE: i <- 2
	.loc	1 13 45                 # comp/sources/comp2.c:13:45
	movq	%rax, -264(%rbp)
	movabsq	$17179869187, %rax      # imm = 0x400000003
.Ltmp70:
	#DEBUG_VALUE: i <- 3
	.loc	1 13 38                 # comp/sources/comp2.c:13:38
	movq	%rax, -132(%rbp)
	movabsq	$21474836484, %rax      # imm = 0x500000004
.Ltmp71:
	#DEBUG_VALUE: i <- 4
	.loc	1 13 45                 # comp/sources/comp2.c:13:45
	movq	%rax, -256(%rbp)
	movabsq	$25769803781, %rax      # imm = 0x600000005
.Ltmp72:
	#DEBUG_VALUE: i <- 5
	.loc	1 13 38                 # comp/sources/comp2.c:13:38
	movq	%rax, -124(%rbp)
	movabsq	$30064771078, %rax      # imm = 0x700000006
.Ltmp73:
	#DEBUG_VALUE: i <- 6
	.loc	1 13 45                 # comp/sources/comp2.c:13:45
	movq	%rax, -248(%rbp)
	movabsq	$34359738375, %rax      # imm = 0x800000007
.Ltmp74:
	#DEBUG_VALUE: i <- 7
	.loc	1 13 38                 # comp/sources/comp2.c:13:38
	movq	%rax, -116(%rbp)
	movabsq	$38654705672, %rax      # imm = 0x900000008
.Ltmp75:
	#DEBUG_VALUE: i <- 8
	.loc	1 13 45                 # comp/sources/comp2.c:13:45
	movq	%rax, -240(%rbp)
	movabsq	$42949672969, %rax      # imm = 0xA00000009
.Ltmp76:
	#DEBUG_VALUE: i <- 9
	.loc	1 13 38                 # comp/sources/comp2.c:13:38
	movq	%rax, -108(%rbp)
	movabsq	$47244640266, %rax      # imm = 0xB0000000A
.Ltmp77:
	#DEBUG_VALUE: i <- 10
	.loc	1 13 45                 # comp/sources/comp2.c:13:45
	movq	%rax, -232(%rbp)
	movabsq	$51539607563, %rax      # imm = 0xC0000000B
.Ltmp78:
	#DEBUG_VALUE: i <- 11
	.loc	1 13 38                 # comp/sources/comp2.c:13:38
	movq	%rax, -100(%rbp)
	movabsq	$55834574860, %rax      # imm = 0xD0000000C
.Ltmp79:
	#DEBUG_VALUE: i <- 12
	.loc	1 13 45                 # comp/sources/comp2.c:13:45
	movq	%rax, -224(%rbp)
	movabsq	$60129542157, %rax      # imm = 0xE0000000D
.Ltmp80:
	#DEBUG_VALUE: i <- 13
	.loc	1 13 38                 # comp/sources/comp2.c:13:38
	movq	%rax, -92(%rbp)
	movabsq	$64424509454, %rax      # imm = 0xF0000000E
.Ltmp81:
	#DEBUG_VALUE: i <- 14
	.loc	1 13 45                 # comp/sources/comp2.c:13:45
	movq	%rax, -216(%rbp)
.Ltmp82:
	#DEBUG_VALUE: i <- 15
	.loc	1 13 38                 # comp/sources/comp2.c:13:38
	movl	$15, -84(%rbp)
	movabsq	$73014444048, %rax      # imm = 0x1100000010
.Ltmp83:
	#DEBUG_VALUE: i <- 16
	.loc	1 13 45                 # comp/sources/comp2.c:13:45
	movq	%rax, -208(%rbp)
	.loc	1 13 38                 # comp/sources/comp2.c:13:38
	movq	%rax, -80(%rbp)
	movabsq	$81604378642, %rax      # imm = 0x1300000012
.Ltmp84:
	#DEBUG_VALUE: i <- 18
	.loc	1 13 45                 # comp/sources/comp2.c:13:45
	movq	%rax, -200(%rbp)
	.loc	1 13 38                 # comp/sources/comp2.c:13:38
	movq	%rax, -72(%rbp)
	movabsq	$90194313236, %rax      # imm = 0x1500000014
.Ltmp85:
	#DEBUG_VALUE: i <- 20
	.loc	1 13 45                 # comp/sources/comp2.c:13:45
	movq	%rax, -192(%rbp)
	.loc	1 13 38                 # comp/sources/comp2.c:13:38
	movq	%rax, -64(%rbp)
	movabsq	$98784247830, %rax      # imm = 0x1700000016
.Ltmp86:
	#DEBUG_VALUE: i <- 22
	.loc	1 13 45                 # comp/sources/comp2.c:13:45
	movq	%rax, -184(%rbp)
	.loc	1 13 38                 # comp/sources/comp2.c:13:38
	movq	%rax, -56(%rbp)
	movabsq	$107374182424, %rax     # imm = 0x1900000018
.Ltmp87:
	#DEBUG_VALUE: i <- 24
	.loc	1 13 45                 # comp/sources/comp2.c:13:45
	movq	%rax, -176(%rbp)
	.loc	1 13 38                 # comp/sources/comp2.c:13:38
	movq	%rax, -48(%rbp)
	movabsq	$115964117018, %rax     # imm = 0x1B0000001A
.Ltmp88:
	#DEBUG_VALUE: i <- 26
	.loc	1 13 45                 # comp/sources/comp2.c:13:45
	movq	%rax, -168(%rbp)
	.loc	1 13 38                 # comp/sources/comp2.c:13:38
	movq	%rax, -40(%rbp)
	movabsq	$124554051612, %rax     # imm = 0x1D0000001C
.Ltmp89:
	#DEBUG_VALUE: i <- 28
	.loc	1 13 45                 # comp/sources/comp2.c:13:45
	movq	%rax, -160(%rbp)
	.loc	1 13 38                 # comp/sources/comp2.c:13:38
	movq	%rax, -32(%rbp)
	movabsq	$133143986206, %rax     # imm = 0x1F0000001E
.Ltmp90:
	#DEBUG_VALUE: i <- 30
	.loc	1 13 45                 # comp/sources/comp2.c:13:45
	movq	%rax, -152(%rbp)
	.loc	1 13 38                 # comp/sources/comp2.c:13:38
	movq	%rax, -24(%rbp)
.Ltmp91:
	#DEBUG_VALUE: i <- 32
	.loc	1 14 10 is_stmt 1       # comp/sources/comp2.c:14:10
	movl	$-1, -272(%rbp)
	leaq	-144(%rbp), %rdi
	leaq	-272(%rbp), %rsi
	.loc	1 15 13                 # comp/sources/comp2.c:15:13
	callq	comp
.Ltmp92:
	#DEBUG_VALUE: main:r <- $eax
	.loc	1 16 5                  # comp/sources/comp2.c:16:5
	movl	$.L.str, %edi
	movl	%eax, %esi
	xorl	%eax, %eax
.Ltmp93:
	callq	printf
	movq	%fs:40, %rax
	cmpq	-8(%rbp), %rax
	jne	.LBB1_2
.Ltmp94:
# %bb.1:                                # %SP_return
	.loc	1 17 5                  # comp/sources/comp2.c:17:5
	xorl	%eax, %eax
	addq	$272, %rsp              # imm = 0x110
	popq	%rbp
	.cfi_def_cfa %rsp, 8
	retq
.LBB1_2:                                # %CallStackCheckFailBlk
	.cfi_def_cfa %rbp, 16
.Ltmp95:
	#DEBUG_VALUE: i <- 32
	.loc	1 0 0 is_stmt 0         # comp/sources/comp2.c:0:0
	callq	__stack_chk_fail
.Ltmp96:
.Lfunc_end1:
	.size	main, .Lfunc_end1-main
	.cfi_endproc
                                        # -- End function
	.type	.L.str,@object          # @.str
	.section	.rodata.str1.1,"aMS",@progbits,1
.L.str:
	.asciz	"%d\n"
	.size	.L.str, 4

	.section	".note.GNU-stack","",@progbits